###############################################################################
#                                                                             #
# IAR C/C++ Compiler V8.10.1.40194/W32 for 8051         03/Dec/2018  19:12:56 #
# Copyright 2004-2011 IAR Systems AB.                                         #
#                                                                             #
#    Core               =  plain                                              #
#    Code model         =  banked                                             #
#    Data model         =  large                                              #
#    Calling convention =  xdata reentrant                                    #
#    Constant location  =  data_rom                                           #
#    Dptr setup         =  1,16                                               #
#    Source file        =  F:\2019\国创-1100\下位机程序（CC2530）\ZStack-CC25 #
#                          30-2.3.0-1.4.0\Projects\zstack\Samples\SampleApp\S #
#                          ource\SampleApp-end3.c                             #
#    Command line       =  -f F:\2019\国创-1100\下位机程序（CC2530）\ZStack-C #
#                          C2530-2.3.0-1.4.0\Projects\zstack\Samples\SampleAp #
#                          p\CC2530DB\..\..\..\Tools\CC2530DB\f8wEndev.cfg    #
#                          (-DCPU32MHZ -DROOT=__near_func -DBLINK_LEDS) -f    #
#                          F:\2019\国创-1100\下位机程序（CC2530）\ZStack-CC25 #
#                          30-2.3.0-1.4.0\Projects\zstack\Samples\SampleApp\C #
#                          C2530DB\..\..\..\Tools\CC2530DB\f8wConfig.cfg      #
#                          (-DSECURE=0 -DZG_SECURE_DYNAMIC=0 -DREFLECTOR      #
#                          -DDEFAULT_CHANLIST=0x00000800                      #
#                          -DZDAPP_CONFIG_PAN_ID=0xFFF1                       #
#                          -DNWK_START_DELAY=100 -DEXTENDED_JOINING_RANDOM_MA #
#                          SK=0x007F -DBEACON_REQUEST_DELAY=100               #
#                          -DBEACON_REQ_DELAY_MASK=0x00FF                     #
#                          -DROUTE_EXPIRY_TIME=30 -DAPSC_ACK_WAIT_DURATION_PO #
#                          LLED=3000 -DNWK_INDIRECT_MSG_TIMEOUT=7             #
#                          -DMAX_RREQ_ENTRIES=8 -DAPSC_MAX_FRAME_RETRIES=3    #
#                          -DNWK_MAX_DATA_RETRIES=2                           #
#                          -DMAX_POLL_FAILURE_RETRIES=2 -DMAX_BCAST=9         #
#                          -DAPS_MAX_GROUPS=16 -DMAX_RTG_ENTRIES=40           #
#                          -DNWK_MAX_BINDING_ENTRIES=4                        #
#                          -DMAX_BINDING_CLUSTER_IDS=4 "-DDEFAULT_KEY={0x01,  #
#                          0x03, 0x05, 0x07, 0x09, 0x0B, 0x0D, 0x0F, 0x00,    #
#                          0x02, 0x04, 0x06, 0x08, 0x0A, 0x0C, 0x0D}"         #
#                          -DMAC_MAX_FRAME_SIZE=116 "-DCONST=const __code"    #
#                          -DGENERIC=__generic -DRFD_RCVC_ALWAYS_ON=FALSE     #
#                          -DPOLL_RATE=1000 -DQUEUED_POLL_RATE=100            #
#                          -DRESPONSE_POLL_RATE=100) -DREJOIN_POLL_RATE=440   #
#                          F:\2019\国创-1100\下位机程序（CC2530）\ZStack-CC25 #
#                          30-2.3.0-1.4.0\Projects\zstack\Samples\SampleApp\S #
#                          ource\SampleApp-end3.c -D ZIGBEEPRO -D             #
#                          NWK_AUTO_POLL -D ZTOOL_P1 -D xMT_TASK -D           #
#                          xMT_SYS_FUNC -D xMT_ZDO_FUNC -D                    #
#                          LCD_SUPPORTED=DEBUG -lC F:\2019\国创-1100\下位机程 #
#                          序（CC2530）\ZStack-CC2530-2.3.0-1.4.0\Projects\zs #
#                          tack\Samples\SampleApp\CC2530DB\EndDeviceEB-Pro\Li #
#                          st\ -lA F:\2019\国创-1100\下位机程序（CC2530）\ZSt #
#                          ack-CC2530-2.3.0-1.4.0\Projects\zstack\Samples\Sam #
#                          pleApp\CC2530DB\EndDeviceEB-Pro\List\              #
#                          --diag_suppress Pe001,Pa010 -o                     #
#                          F:\2019\国创-1100\下位机程序（CC2530）\ZStack-CC25 #
#                          30-2.3.0-1.4.0\Projects\zstack\Samples\SampleApp\C #
#                          C2530DB\EndDeviceEB-Pro\Obj\ -e --debug            #
#                          --core=plain --dptr=16,1 --data_model=large        #
#                          --code_model=banked --calling_convention=xdata_ree #
#                          ntrant --place_constants=data_rom                  #
#                          --nr_virtual_regs 16 -I F:\2019\国创-1100\下位机程 #
#                          序（CC2530）\ZStack-CC2530-2.3.0-1.4.0\Projects\zs #
#                          tack\Samples\SampleApp\CC2530DB\ -I                #
#                          F:\2019\国创-1100\下位机程序（CC2530）\ZStack-CC25 #
#                          30-2.3.0-1.4.0\Projects\zstack\Samples\SampleApp\C #
#                          C2530DB\..\SOURCE\ -I F:\2019\国创-1100\下位机程序 #
#                          （CC2530）\ZStack-CC2530-2.3.0-1.4.0\Projects\zsta #
#                          ck\Samples\SampleApp\CC2530DB\..\..\..\ZMAIN\TI253 #
#                          0DB\ -I F:\2019\国创-1100\下位机程序（CC2530）\ZSt #
#                          ack-CC2530-2.3.0-1.4.0\Projects\zstack\Samples\Sam #
#                          pleApp\CC2530DB\..\..\..\..\..\COMPONENTS\MT\ -I   #
#                          F:\2019\国创-1100\下位机程序（CC2530）\ZStack-CC25 #
#                          30-2.3.0-1.4.0\Projects\zstack\Samples\SampleApp\C #
#                          C2530DB\..\..\..\..\..\COMPONENTS\HAL\INCLUDE\ -I  #
#                          F:\2019\国创-1100\下位机程序（CC2530）\ZStack-CC25 #
#                          30-2.3.0-1.4.0\Projects\zstack\Samples\SampleApp\C #
#                          C2530DB\..\..\..\..\..\COMPONENTS\HAL\TARGET\CC253 #
#                          0EB\ -I F:\2019\国创-1100\下位机程序（CC2530）\ZSt #
#                          ack-CC2530-2.3.0-1.4.0\Projects\zstack\Samples\Sam #
#                          pleApp\CC2530DB\..\..\..\..\..\COMPONENTS\OSAL\MCU #
#                          \CCSOC\ -I F:\2019\国创-1100\下位机程序（CC2530）\ #
#                          ZStack-CC2530-2.3.0-1.4.0\Projects\zstack\Samples\ #
#                          SampleApp\CC2530DB\..\..\..\..\..\COMPONENTS\OSAL\ #
#                          INCLUDE\ -I F:\2019\国创-1100\下位机程序（CC2530） #
#                          \ZStack-CC2530-2.3.0-1.4.0\Projects\zstack\Samples #
#                          \SampleApp\CC2530DB\..\..\..\..\..\COMPONENTS\STAC #
#                          K\AF\ -I F:\2019\国创-1100\下位机程序（CC2530）\ZS #
#                          tack-CC2530-2.3.0-1.4.0\Projects\zstack\Samples\Sa #
#                          mpleApp\CC2530DB\..\..\..\..\..\COMPONENTS\STACK\N #
#                          WK\ -I F:\2019\国创-1100\下位机程序（CC2530）\ZSta #
#                          ck-CC2530-2.3.0-1.4.0\Projects\zstack\Samples\Samp #
#                          leApp\CC2530DB\..\..\..\..\..\COMPONENTS\STACK\SEC #
#                          \ -I F:\2019\国创-1100\下位机程序（CC2530）\ZStack #
#                          -CC2530-2.3.0-1.4.0\Projects\zstack\Samples\Sample #
#                          App\CC2530DB\..\..\..\..\..\COMPONENTS\STACK\SAPI\ #
#                           -I F:\2019\国创-1100\下位机程序（CC2530）\ZStack- #
#                          CC2530-2.3.0-1.4.0\Projects\zstack\Samples\SampleA #
#                          pp\CC2530DB\..\..\..\..\..\COMPONENTS\STACK\SYS\   #
#                          -I F:\2019\国创-1100\下位机程序（CC2530）\ZStack-C #
#                          C2530-2.3.0-1.4.0\Projects\zstack\Samples\SampleAp #
#                          p\CC2530DB\..\..\..\..\..\COMPONENTS\STACK\ZDO\    #
#                          -I F:\2019\国创-1100\下位机程序（CC2530）\ZStack-C #
#                          C2530-2.3.0-1.4.0\Projects\zstack\Samples\SampleAp #
#                          p\CC2530DB\..\..\..\..\..\COMPONENTS\ZMAC\F8W\ -I  #
#                          F:\2019\国创-1100\下位机程序（CC2530）\ZStack-CC25 #
#                          30-2.3.0-1.4.0\Projects\zstack\Samples\SampleApp\C #
#                          C2530DB\..\..\..\..\..\COMPONENTS\ZMAC\ -I         #
#                          F:\2019\国创-1100\下位机程序（CC2530）\ZStack-CC25 #
#                          30-2.3.0-1.4.0\Projects\zstack\Samples\SampleApp\C #
#                          C2530DB\..\..\..\..\..\COMPONENTS\SERVICES\SADDR\  #
#                          -I F:\2019\国创-1100\下位机程序（CC2530）\ZStack-C #
#                          C2530-2.3.0-1.4.0\Projects\zstack\Samples\SampleAp #
#                          p\CC2530DB\..\..\..\..\..\COMPONENTS\SERVICES\SDAT #
#                          A\ -I F:\2019\国创-1100\下位机程序（CC2530）\ZStac #
#                          k-CC2530-2.3.0-1.4.0\Projects\zstack\Samples\Sampl #
#                          eApp\CC2530DB\..\..\..\..\..\COMPONENTS\MAC\INCLUD #
#                          E\ -I F:\2019\国创-1100\下位机程序（CC2530）\ZStac #
#                          k-CC2530-2.3.0-1.4.0\Projects\zstack\Samples\Sampl #
#                          eApp\CC2530DB\..\..\..\..\..\COMPONENTS\MAC\HIGH_L #
#                          EVEL\ -I F:\2019\国创-1100\下位机程序（CC2530）\ZS #
#                          tack-CC2530-2.3.0-1.4.0\Projects\zstack\Samples\Sa #
#                          mpleApp\CC2530DB\..\..\..\..\..\COMPONENTS\MAC\LOW #
#                          _LEVEL\srf04\ -I F:\2019\国创-1100\下位机程序（CC2 #
#                          530）\ZStack-CC2530-2.3.0-1.4.0\Projects\zstack\Sa #
#                          mples\SampleApp\CC2530DB\..\..\..\..\..\COMPONENTS #
#                          \MAC\LOW_LEVEL\srf04\SINGLE_CHIP\ -Ohz             #
#                          --require_prototypes                               #
#    List file          =  F:\2019\国创-1100\下位机程序（CC2530）\ZStack-CC25 #
#                          30-2.3.0-1.4.0\Projects\zstack\Samples\SampleApp\C #
#                          C2530DB\EndDeviceEB-Pro\List\SampleApp-end3.lst    #
#    Object file        =  F:\2019\国创-1100\下位机程序（CC2530）\ZStack-CC25 #
#                          30-2.3.0-1.4.0\Projects\zstack\Samples\SampleApp\C #
#                          C2530DB\EndDeviceEB-Pro\Obj\SampleApp-end3.r51     #
#                                                                             #
#                                                                             #
###############################################################################

F:\2019\国创-1100\下位机程序（CC2530）\ZStack-CC2530-2.3.0-1.4.0\Projects\zstack\Samples\SampleApp\Source\SampleApp-end3.c
      1          /**************************************************************************************************
      2            Filename:       SampleApp.c
      3            Revised:        $Date: 2009-03-18 15:56:27 -0700 (Wed, 18 Mar 2009) $
      4            Revision:       $Revision: 19453 $
      5          
      6            Description:    Sample Application (no Profile).
      7          
      8          
      9            Copyright 2007 Texas Instruments Incorporated. All rights reserved.
     10          
     11            IMPORTANT: Your use of this Software is limited to those specific rights
     12            granted under the terms of a software license agreement between the user
     13            who downloaded the software, his/her employer (which must be your employer)
     14            and Texas Instruments Incorporated (the "License").  You may not use this
     15            Software unless you agree to abide by the terms of the License. The License
     16            limits your use, and you acknowledge, that the Software may not be modified,
     17            copied or distributed unless embedded on a Texas Instruments microcontroller
     18            or used solely and exclusively in conjunction with a Texas Instruments radio
     19            frequency transceiver, which is integrated into your product.  Other than for
     20            the foregoing purpose, you may not use, reproduce, copy, prepare derivative
     21            works of, modify, distribute, perform, display or sell this Software and/or
     22            its documentation for any purpose.
     23          
     24            YOU FURTHER ACKNOWLEDGE AND AGREE THAT THE SOFTWARE AND DOCUMENTATION ARE
     25            PROVIDED AS IS?WITHOUT WARRANTY OF ANY KIND, EITHER EXPRESS OR IMPLIED,
     26            INCLUDING WITHOUT LIMITATION, ANY WARRANTY OF MERCHANTABILITY, TITLE,
     27            NON-INFRINGEMENT AND FITNESS FOR A PARTICULAR PURPOSE. IN NO EVENT SHALL
     28            TEXAS INSTRUMENTS OR ITS LICENSORS BE LIABLE OR OBLIGATED UNDER CONTRACT,
     29            NEGLIGENCE, STRICT LIABILITY, CONTRIBUTION, BREACH OF WARRANTY, OR OTHER
     30            LEGAL EQUITABLE THEORY ANY DIRECT OR INDIRECT DAMAGES OR EXPENSES
     31            INCLUDING BUT NOT LIMITED TO ANY INCIDENTAL, SPECIAL, INDIRECT, PUNITIVE
     32            OR CONSEQUENTIAL DAMAGES, LOST PROFITS OR LOST DATA, COST OF PROCUREMENT
     33            OF SUBSTITUTE GOODS, TECHNOLOGY, SERVICES, OR ANY CLAIMS BY THIRD PARTIES
     34            (INCLUDING BUT NOT LIMITED TO ANY DEFENSE THEREOF), OR OTHER SIMILAR COSTS.
     35          
     36            Should you have any questions regarding your right to use this Software,
     37            contact Texas Instruments Incorporated at www.TI.com.
     38          **************************************************************************************************/
     39          
     40          /*********************************************************************
     41            This application isn't intended to do anything useful, it is
     42            intended to be a simple example of an application's structure.
     43          
     44            This application sends it's messages either as broadcast or
     45            broadcast filtered group messages.  The other (more normal)
     46            message addressing is unicast.  Most of the other sample
     47            applications are written to support the unicast message model.
     48          
     49            Key control:
     50              SW1:  Sends a flash command to all devices in Group 1.
     51              SW2:  Adds/Removes (toggles) this device in and out
     52                    of Group 1.  This will enable and disable the
     53                    reception of the flash command.
     54          *********************************************************************/
     55          
     56          /*********************************************************************
     57           * INCLUDES
     58           */
     59          #include "OSAL.h"
     60          #include "ZGlobals.h"
     61          #include "AF.h"
     62          #include "aps_groups.h"
     63          #include "ZDApp.h"
     64          
     65          #include "SampleApp.h"
     66          #include "SampleAppHw.h"
     67          
     68          #include "OnBoard.h"

   \                                 In  segment SFR_AN, at 0x90
   \   union <unnamed> volatile __sfr _A_P1
   \                     _A_P1:
   \   000000                DS 1

   \                                 In  segment SFR_AN, at 0xf4
   \   unsigned char volatile __sfr P1SEL
   \                     P1SEL:
   \   000000                DS 1

   \                                 In  segment SFR_AN, at 0xf6
   \   unsigned char volatile __sfr P1INP
   \                     P1INP:
   \   000000                DS 1

   \                                 In  segment SFR_AN, at 0xfe
   \   unsigned char volatile __sfr P1DIR
   \                     P1DIR:
   \   000000                DS 1
     69          
     70          /* HAL */
     71          #include "hal_lcd.h"
     72          #include "hal_led.h"
     73          #include "hal_key.h"
     74          #include "ADC.h"
     75          #include "dht11.h"
     76          /*********************************************************************
     77           * MACROS
     78           */
     79          
     80          /*********************************************************************
     81           * CONSTANTS
     82           */
     83          
     84          /*********************************************************************
     85           * TYPEDEFS
     86           */
     87          
     88          /*********************************************************************
     89           * GLOBAL VARIABLES
     90           */

   \                                 In  segment XDATA_Z, align 1, keep-with-next
     91          uint8 LedState = 0;
   \                     LedState:
   \   000000                DS 1
   \   000001                REQUIRE __INIT_XDATA_Z

   \                                 In  segment XDATA_I, align 1, keep-with-next
     92          uint8 set_wendu=15;//设置的温度值
   \                     set_wendu:
   \   000000                DS 1
   \   000001                REQUIRE `?<Initializer for set_wendu>`
   \   000001                REQUIRE __INIT_XDATA_I

   \                                 In  segment XDATA_I, align 1, keep-with-next
     93          uint8 set_shidu=60;//设置的湿度值
   \                     set_shidu:
   \   000000                DS 1
   \   000001                REQUIRE `?<Initializer for set_shidu>`
   \   000001                REQUIRE __INIT_XDATA_I

   \                                 In  segment XDATA_I, align 1, keep-with-next
     94          uint16 set_jw=2000;//设置的一氧化碳值
   \                     set_jw:
   \   000000                DS 2
   \   000002                REQUIRE `?<Initializer for set_jw>`
   \   000002                REQUIRE __INIT_XDATA_I

   \                                 In  segment XDATA_I, align 1, keep-with-next
     95          uint16 set_lhw=2000;//设置的一氧化碳值
   \                     set_lhw:
   \   000000                DS 2
   \   000002                REQUIRE `?<Initializer for set_lhw>`
   \   000002                REQUIRE __INIT_XDATA_I
     96          
     97          // This list should be filled with Application specific Cluster IDs.

   \                                 In  segment XDATA_ROM_C, align 1
     98          const cId_t SampleApp_ClusterList[SAMPLEAPP_MAX_CLUSTERS] =
   \                     SampleApp_ClusterList:
   \   000000   0100         DW 1
   \   000002   0200         DW 2
   \   000004   0300         DW 3
   \   000006   0400         DW 4
     99          {
    100            SAMPLEAPP_PERIODIC_CLUSTERID,
    101            SAMPLEAPP_FLASH_CLUSTERID,
    102            SAMPLEAPP_COM_CLUSTERID,      
    103            SAMPLEAPP_P2P_CLUSTERID      
    104          };
    105          

   \                                 In  segment XDATA_ROM_C, align 1
    106          const SimpleDescriptionFormat_t SampleApp_SimpleDesc =
   \                     SampleApp_SimpleDesc:
   \   000000   14           DB 20
   \   000001   080F         DW 3848
   \   000003   0100         DW 1
   \   000005   00           DB 0
   \   000006   04           DB 4
   \   000007   ....         DW SampleApp_ClusterList
   \   000009   04           DB 4
   \   00000A   ....         DW SampleApp_ClusterList
    107          {
    108            SAMPLEAPP_ENDPOINT,              //  int Endpoint;
    109            SAMPLEAPP_PROFID,                //  uint16 AppProfId[2];
    110            SAMPLEAPP_DEVICEID,              //  uint16 AppDeviceId[2];
    111            SAMPLEAPP_DEVICE_VERSION,        //  int   AppDevVer:4;
    112            SAMPLEAPP_FLAGS,                 //  int   AppFlags:4;
    113            SAMPLEAPP_MAX_CLUSTERS,          //  uint8  AppNumInClusters;
    114            (cId_t *)SampleApp_ClusterList,  //  uint8 *pAppInClusterList;
    115            SAMPLEAPP_MAX_CLUSTERS,          //  uint8  AppNumInClusters;
    116            (cId_t *)SampleApp_ClusterList   //  uint8 *pAppInClusterList;
    117          };
    118          
    119          // This is the Endpoint/Interface description.  It is defined here, but
    120          // filled-in in SampleApp_Init().  Another way to go would be to fill
    121          // in the structure here and make it a "const" (in code space).  The
    122          // way it's defined in this sample app it is define in RAM.

   \                                 In  segment XDATA_Z, align 1, keep-with-next
    123          endPointDesc_t SampleApp_epDesc;
   \                     SampleApp_epDesc:
   \   000000                DS 6
   \   000006                REQUIRE __INIT_XDATA_Z
    124          
    125          /*********************************************************************
    126           * EXTERNAL VARIABLES
    127           */
    128          
    129          /*********************************************************************
    130           * EXTERNAL FUNCTIONS
    131           */
    132          
    133          /*********************************************************************
    134           * LOCAL VARIABLES
    135           */

   \                                 In  segment XDATA_Z, align 1, keep-with-next
    136          uint8 SampleApp_TaskID;   // Task ID for internal task/event processing
   \                     SampleApp_TaskID:
   \   000000                DS 1
   \   000001                REQUIRE __INIT_XDATA_Z
    137                                    // This variable will be received when
    138                                    // SampleApp_Init() is called.

   \                                 In  segment XDATA_Z, align 1, keep-with-next
    139          devStates_t SampleApp_NwkState;
   \                     SampleApp_NwkState:
   \   000000                DS 1
   \   000001                REQUIRE __INIT_XDATA_Z
    140          

   \                                 In  segment XDATA_Z, align 1, keep-with-next
    141          uint8 SampleApp_TransID;  // This is the unique message ID (counter)
   \                     SampleApp_TransID:
   \   000000                DS 1
   \   000001                REQUIRE __INIT_XDATA_Z
    142          

   \                                 In  segment XDATA_Z, align 1, keep-with-next
    143          afAddrType_t SampleApp_Periodic_DstAddr;  //广播
   \                     SampleApp_Periodic_DstAddr:
   \   000000                DS 12
   \   00000C                REQUIRE __INIT_XDATA_Z

   \                                 In  segment XDATA_Z, align 1, keep-with-next
    144          afAddrType_t SampleApp_Flash_DstAddr;//组播
   \                     SampleApp_Flash_DstAddr:
   \   000000                DS 12
   \   00000C                REQUIRE __INIT_XDATA_Z
    145          

   \                                 In  segment XDATA_Z, align 1, keep-with-next
    146          aps_Group_t SampleApp_Group;
   \                     SampleApp_Group:
   \   000000                DS 18
   \   000012                REQUIRE __INIT_XDATA_Z
    147          

   \                                 In  segment XDATA_Z, align 1, keep-with-next
    148          uint8 SampleAppPeriodicCounter = 0;
   \                     SampleAppPeriodicCounter:
   \   000000                DS 1
   \   000001                REQUIRE __INIT_XDATA_Z

   \                                 In  segment XDATA_Z, align 1, keep-with-next
    149          uint8 SampleAppFlashCounter = 0;
   \                     SampleAppFlashCounter:
   \   000000                DS 1
   \   000001                REQUIRE __INIT_XDATA_Z

   \                                 In  segment XDATA_Z, align 1, keep-with-next
    150          uint8 sensor_value[20];//保存传感器值
   \                     sensor_value:
   \   000000                DS 20
   \   000014                REQUIRE __INIT_XDATA_Z
    151          
    152          /*********************************************************************
    153           * LOCAL FUNCTIONS
    154           */
    155          void SampleApp_HandleKeys( uint8 shift, uint8 keys );
    156          void SampleApp_MessageMSGCB( afIncomingMSGPacket_t *pckt );
    157          void SampleApp_SendPeriodicMessage( void );
    158          void SampleApp_SendFlashMessage( uint16 flashTime );
    159          /*********************************************************************
    160           * NETWORK LAYER CALLBACKS
    161           */
    162          
    163          /*********************************************************************
    164           * PUBLIC FUNCTIONS
    165           */
    166          
    167          /*********************************************************************
    168           * @fn      SampleApp_Init
    169           *
    170           * @brief   Initialization function for the Generic App Task.
    171           *          This is called during initialization and should contain
    172           *          any application specific initialization (ie. hardware
    173           *          initialization/setup, table initialization, power up
    174           *          notificaiton ... ).
    175           *
    176           * @param   task_id - the ID assigned by OSAL.  This ID should be
    177           *                    used to send messages and set timers.
    178           *
    179           * @return  none
    180           */

   \                                 In  segment BANKED_CODE, align 1, keep-with-next
    181          void SampleApp_Init( uint8 task_id )
   \                     SampleApp_Init:
    182          {
   \   000000   74F5         MOV     A,#-0xb
   \   000002   12....       LCALL   ?BANKED_ENTER_XDATA
   \   000005                ; Saved register size: 11
   \   000005                ; Auto size: 0
   \   000005   E9           MOV     A,R1
    183            SampleApp_TaskID = task_id;
   \   000006   90....       MOV     DPTR,#SampleApp_TaskID
   \   000009   F0           MOVX    @DPTR,A
    184            SampleApp_NwkState = DEV_INIT;
   \   00000A   90....       MOV     DPTR,#SampleApp_NwkState
   \   00000D   7401         MOV     A,#0x1
   \   00000F   F0           MOVX    @DPTR,A
    185            SampleApp_TransID = 0;
   \   000010   90....       MOV     DPTR,#SampleApp_TransID
   \   000013   E4           CLR     A
   \   000014   F0           MOVX    @DPTR,A
    186          
    187           
    188            
    189            // Device hardware initialization can be added here or in main() (Zmain.c).
    190            // If the hardware is application specific - add it here.
    191            // If the hardware is other parts of the device add it in main().
    192          
    193           #if defined ( BUILD_ALL_DEVICES )
    194            // The "Demo" target is setup to have BUILD_ALL_DEVICES and HOLD_AUTO_START
    195            // We are looking at a jumper (defined in SampleAppHw.c) to be jumpered
    196            // together - if they are - we will start up a coordinator. Otherwise,
    197            // the device will start as a router.
    198            if ( readCoordinatorJumper() )
    199              zgDeviceLogicalType = ZG_DEVICETYPE_COORDINATOR;
    200            else
    201              zgDeviceLogicalType = ZG_DEVICETYPE_ROUTER;
    202          #endif // BUILD_ALL_DEVICES
    203          
    204          #if defined ( HOLD_AUTO_START )
    205            // HOLD_AUTO_START is a compile option that will surpress ZDApp
    206            //  from starting the device and wait for the application to
    207            //  start the device.
    208            ZDOInitDevice(0);
    209          #endif
    210          
    211            // Setup for the periodic message's destination address
    212            // Broadcast to everyone
    213            SampleApp_Periodic_DstAddr.addrMode = (afAddrMode_t)AddrBroadcast;
   \   000015   90....       MOV     DPTR,#SampleApp_Periodic_DstAddr + 8
   \   000018   740F         MOV     A,#0xf
   \   00001A   F0           MOVX    @DPTR,A
    214            SampleApp_Periodic_DstAddr.endPoint = SAMPLEAPP_ENDPOINT;
   \   00001B   A3           INC     DPTR
   \   00001C   7414         MOV     A,#0x14
   \   00001E   F0           MOVX    @DPTR,A
    215            SampleApp_Periodic_DstAddr.addr.shortAddr = 0xFFFF;
   \   00001F   90....       MOV     DPTR,#SampleApp_Periodic_DstAddr
   \   000022   74FF         MOV     A,#-0x1
   \   000024   F0           MOVX    @DPTR,A
   \   000025   A3           INC     DPTR
   \   000026   F0           MOVX    @DPTR,A
    216          
    217            // Setup for the flash command's destination address - Group 1
    218            SampleApp_Flash_DstAddr.addrMode = (afAddrMode_t)afAddrGroup;
   \   000027   90....       MOV     DPTR,#SampleApp_Flash_DstAddr + 8
   \   00002A   7401         MOV     A,#0x1
   \   00002C   F0           MOVX    @DPTR,A
    219            SampleApp_Flash_DstAddr.endPoint = SAMPLEAPP_ENDPOINT;
   \   00002D   A3           INC     DPTR
   \   00002E   7414         MOV     A,#0x14
   \   000030   F0           MOVX    @DPTR,A
    220            SampleApp_Flash_DstAddr.addr.shortAddr = SAMPLEAPP_FLASH_GROUP; //组号1
   \   000031   90....       MOV     DPTR,#SampleApp_Flash_DstAddr
   \   000034   7401         MOV     A,#0x1
   \   000036   F0           MOVX    @DPTR,A
   \   000037   A3           INC     DPTR
   \   000038   E4           CLR     A
   \   000039   F0           MOVX    @DPTR,A
    221            
    222            // Fill out the endpoint description.
    223            SampleApp_epDesc.endPoint = SAMPLEAPP_ENDPOINT;
   \   00003A   90....       MOV     DPTR,#SampleApp_epDesc
   \   00003D   7414         MOV     A,#0x14
   \   00003F   F0           MOVX    @DPTR,A
    224            SampleApp_epDesc.task_id = &SampleApp_TaskID;
   \   000040   A3           INC     DPTR
   \   000041   74..         MOV     A,#SampleApp_TaskID & 0xff
   \   000043   F0           MOVX    @DPTR,A
   \   000044   A3           INC     DPTR
   \   000045   74..         MOV     A,#(SampleApp_TaskID >> 8) & 0xff
   \   000047   F0           MOVX    @DPTR,A
    225            SampleApp_epDesc.simpleDesc
    226                      = (SimpleDescriptionFormat_t *)&SampleApp_SimpleDesc;
   \   000048   A3           INC     DPTR
   \   000049   74..         MOV     A,#SampleApp_SimpleDesc & 0xff
   \   00004B   F0           MOVX    @DPTR,A
   \   00004C   A3           INC     DPTR
   \   00004D   74..         MOV     A,#(SampleApp_SimpleDesc >> 8) & 0xff
   \   00004F   F0           MOVX    @DPTR,A
    227            SampleApp_epDesc.latencyReq = noLatencyReqs;
   \   000050   A3           INC     DPTR
   \   000051   E4           CLR     A
   \   000052   F0           MOVX    @DPTR,A
    228          
    229            // Register the endpoint description with the AF
    230            afRegister( &SampleApp_epDesc );
   \   000053                ; Setup parameters for call to function afRegister
   \   000053   7A..         MOV     R2,#SampleApp_epDesc & 0xff
   \   000055   7B..         MOV     R3,#(SampleApp_epDesc >> 8) & 0xff
   \   000057   12....       LCALL   ??afRegister?relay
    231          
    232            // Register for all key events - This app will handle all key events
    233            RegisterForKeys( SampleApp_TaskID );
   \   00005A                ; Setup parameters for call to function RegisterForKeys
   \   00005A   90....       MOV     DPTR,#SampleApp_TaskID
   \   00005D   E0           MOVX    A,@DPTR
   \   00005E   F9           MOV     R1,A
   \   00005F   12....       LCALL   ??RegisterForKeys?relay
    234          
    235            // By default, all devices start out in Group 1
    236            SampleApp_Group.ID = 0x0001;
   \   000062   90....       MOV     DPTR,#SampleApp_Group
   \   000065   7401         MOV     A,#0x1
   \   000067   F0           MOVX    @DPTR,A
   \   000068   A3           INC     DPTR
   \   000069   E4           CLR     A
   \   00006A   F0           MOVX    @DPTR,A
    237            osal_memcpy( SampleApp_Group.name, "Group 1", 7 );
   \   00006B                ; Setup parameters for call to function osal_memcpy
   \   00006B   75....       MOV     ?V0 + 0,#`?<Constant "Group 1">` & 0xff
   \   00006E   75....       MOV     ?V0 + 1,#(`?<Constant "Group 1">` >> 8) & 0xff
   \   000071   F5..         MOV     ?V0 + 2,A
   \   000073   78..         MOV     R0,#?V0 + 0
   \   000075   12....       LCALL   ?PUSH_XSTACK_I_THREE
   \   000078   7C07         MOV     R4,#0x7
   \   00007A   7D00         MOV     R5,#0x0
   \   00007C   7A..         MOV     R2,#(SampleApp_Group + 2) & 0xff
   \   00007E   7B..         MOV     R3,#((SampleApp_Group + 2) >> 8) & 0xff
   \   000080   12....       LCALL   ??osal_memcpy?relay
   \   000083   7403         MOV     A,#0x3
   \   000085   12....       LCALL   ?DEALLOC_XSTACK8
    238            aps_AddGroup( SAMPLEAPP_ENDPOINT, &SampleApp_Group );
   \   000088                ; Setup parameters for call to function aps_AddGroup
   \   000088   7A..         MOV     R2,#SampleApp_Group & 0xff
   \   00008A   7B..         MOV     R3,#(SampleApp_Group >> 8) & 0xff
   \   00008C   7914         MOV     R1,#0x14
   \   00008E   12....       LCALL   ??aps_AddGroup?relay
    239          
    240          #if defined ( LCD_SUPPORTED )
    241           // HalLcdWriteString( "SampleApp", HAL_LCD_LINE_1 ); 
    242          #endif
    243          }
   \   000091   7F03         MOV     R7,#0x3
   \   000093   02....       LJMP    ?BANKED_LEAVE_XDATA
    244          
    245          /*********************************************************************
    246           * @fn      SampleApp_ProcessEvent
    247           *
    248           * @brief   Generic Application Task event processor.  This function
    249           *          is called to process all events for the task.  Events
    250           *          include timers, messages and any other user defined events.
    251           *
    252           * @param   task_id  - The OSAL assigned task ID.
    253           * @param   events - events to process.  This is a bit map and can
    254           *                   contain more than one event.
    255           *
    256           * @return  none
    257           */

   \                                 In  segment BANKED_CODE, align 1, keep-with-next
    258          uint16 SampleApp_ProcessEvent( uint8 task_id, uint16 events )
   \                     SampleApp_ProcessEvent:
    259          { uint8 i;
                         ^
Warning[Pe177]: variable "i" was declared but never referenced
   \   000000   74F4         MOV     A,#-0xc
   \   000002   12....       LCALL   ?BANKED_ENTER_XDATA
   \   000005                ; Saved register size: 12
   \   000005                ; Auto size: 0
   \   000005   EA           MOV     A,R2
   \   000006   FE           MOV     R6,A
   \   000007   EB           MOV     A,R3
   \   000008   FF           MOV     R7,A
    260            afIncomingMSGPacket_t *MSGpkt;
    261            (void)task_id;  // Intentionally unreferenced parameter
    262          
    263            if ( events & SYS_EVENT_MSG )
   \   000009   5480         ANL     A,#0x80
   \   00000B   6072         JZ      ??SampleApp_ProcessEvent_0
    264            {
    265              MSGpkt = (afIncomingMSGPacket_t *)osal_msg_receive( SampleApp_TaskID );
   \   00000D                ; Setup parameters for call to function osal_msg_receive
   \   00000D   803C         SJMP    ??SampleApp_ProcessEvent_1
    266              while ( MSGpkt )
    267              {
    268                switch ( MSGpkt->hdr.event )
    269                {
    270                  // Received when a key is pressed
    271                  case KEY_CHANGE:
    272                  //  SampleApp_HandleKeys( ((keyChange_t *)MSGpkt)->state, ((keyChange_t *)MSGpkt)->keys );
    273                    break;
    274          
    275                  // Received when a messages is received (OTA) for this endpoint
    276                  case AF_INCOMING_MSG_CMD:
    277                    SampleApp_MessageMSGCB( MSGpkt );
    278                    break;
    279          
    280                  // Received whenever the device changes state in the network
    281                  case ZDO_STATE_CHANGE:
    282                    SampleApp_NwkState = (devStates_t)(MSGpkt->hdr.status);
   \                     ??SampleApp_ProcessEvent_2:
   \   00000F   A3           INC     DPTR
   \   000010   E0           MOVX    A,@DPTR
   \   000011   90....       MOV     DPTR,#SampleApp_NwkState
   \   000014   F0           MOVX    @DPTR,A
    283                    if ((SampleApp_NwkState == DEV_ROUTER)|| (SampleApp_NwkState == DEV_END_DEVICE) )
   \   000015   6407         XRL     A,#0x7
   \   000017   6005         JZ      ??SampleApp_ProcessEvent_3
   \   000019   E0           MOVX    A,@DPTR
   \   00001A   6406         XRL     A,#0x6
   \   00001C   7026         JNZ     ??SampleApp_ProcessEvent_4
    284                    {
    285                        P1SEL&=~0x20;//作为普通IO口 
   \                     ??SampleApp_ProcessEvent_3:
   \   00001E   53F4DF       ANL     0xf4,#0xdf
    286                        P1DIR|=0x20;  //P1_5定义为输出 
   \   000021   43FE20       ORL     0xfe,#0x20
    287                        P1INP&=~0x20; //打开上拉
   \   000024   53F6DF       ANL     0xf6,#0xdf
    288                        P1_5=1;
   \   000027   D295         SETB    0x90.5
    289                        HalLedSet(HAL_LED_1,HAL_LED_MODE_ON);
   \   000029                ; Setup parameters for call to function HalLedSet
   \   000029   7A01         MOV     R2,#0x1
   \   00002B   7901         MOV     R1,#0x1
   \   00002D   12....       LCALL   ??HalLedSet?relay
    290                        HalLedSet(HAL_LED_2,HAL_LED_MODE_ON);
   \   000030                ; Setup parameters for call to function HalLedSet
   \   000030   7A01         MOV     R2,#0x1
   \   000032   7902         MOV     R1,#0x2
   \   000034   12....       LCALL   ??HalLedSet?relay
    291                        HalLedBlink (HAL_LED_1,4, 50, 500);
   \   000037                ; Setup parameters for call to function HalLedBlink
   \   000037   7CF4         MOV     R4,#-0xc
   \   000039   7D01         MOV     R5,#0x1
   \   00003B   7B32         MOV     R3,#0x32
   \   00003D   7A04         MOV     R2,#0x4
   \   00003F   7901         MOV     R1,#0x1
   \   000041   12....       LCALL   ??HalLedBlink?relay
    292                      // osal_start_timerEx( SampleApp_TaskID,SAMPLEAPP_SEND_PERIODIC_MSG_EVT,2000 );//周期采集传感器值  
    293                    }
    294                    else
    295                    {
    296                      // Device is no longer in the network
    297                    }
    298                    break;
    299          
    300                  default:
    301                    break;
    302                }
    303          
    304                // Release the memory
    305                osal_msg_deallocate( (uint8 *)MSGpkt );
   \                     ??SampleApp_ProcessEvent_4:
   \   000044                ; Setup parameters for call to function osal_msg_deallocate
   \   000044   AA..         MOV     R2,?V0 + 0
   \   000046   AB..         MOV     R3,?V0 + 1
   \   000048   12....       LCALL   ??osal_msg_deallocate?relay
    306          
    307                // Next - if one is available
    308                MSGpkt = (afIncomingMSGPacket_t *)osal_msg_receive( SampleApp_TaskID );
   \   00004B                ; Setup parameters for call to function osal_msg_receive
   \                     ??SampleApp_ProcessEvent_1:
   \   00004B   90....       MOV     DPTR,#SampleApp_TaskID
   \   00004E   E0           MOVX    A,@DPTR
   \   00004F   F9           MOV     R1,A
   \   000050   12....       LCALL   ??osal_msg_receive?relay
   \   000053   8A..         MOV     ?V0 + 0,R2
   \   000055   8B..         MOV     ?V0 + 1,R3
   \   000057   E5..         MOV     A,?V0 + 0
   \   000059   45..         ORL     A,?V0 + 1
   \   00005B   601A         JZ      ??SampleApp_ProcessEvent_5
   \   00005D   85..82       MOV     DPL,?V0 + 0
   \   000060   85..83       MOV     DPH,?V0 + 1
   \   000063   E0           MOVX    A,@DPTR
   \   000064   24E6         ADD     A,#-0x1a
   \   000066   6006         JZ      ??SampleApp_ProcessEvent_6
   \   000068   2449         ADD     A,#0x49
   \   00006A   60A3         JZ      ??SampleApp_ProcessEvent_2
   \   00006C   80D6         SJMP    ??SampleApp_ProcessEvent_4
   \                     ??SampleApp_ProcessEvent_6:
   \   00006E                ; Setup parameters for call to function SampleApp_MessageMSGCB
   \   00006E   AA..         MOV     R2,?V0 + 0
   \   000070   AB..         MOV     R3,?V0 + 1
   \   000072   12....       LCALL   ??SampleApp_MessageMSGCB?relay
   \   000075   80CD         SJMP    ??SampleApp_ProcessEvent_4
    309              }
    310          
    311              // return unprocessed events
    312              return (events ^ SYS_EVENT_MSG);
   \                     ??SampleApp_ProcessEvent_5:
   \   000077   EE           MOV     A,R6
   \   000078   FA           MOV     R2,A
   \   000079   EF           MOV     A,R7
   \   00007A   6480         XRL     A,#0x80
   \                     ??SampleApp_ProcessEvent_7:
   \   00007C   FB           MOV     R3,A
   \   00007D   8020         SJMP    ??SampleApp_ProcessEvent_8
    313            }
    314          
    315            // Send a message out - This event is generated by a timer
    316            //  (setup in SampleApp_Init()).
    317            if ( events & SAMPLEAPP_SEND_PERIODIC_MSG_EVT )
   \                     ??SampleApp_ProcessEvent_0:
   \   00007F   EE           MOV     A,R6
   \   000080   A2E0         MOV     C,0xE0 /* A   */.0
   \   000082   5017         JNC     ??SampleApp_ProcessEvent_9
    318            {
    319              // Setup to send message again in normal period (+ a little jitter)
    320              osal_start_timerEx( SampleApp_TaskID, SAMPLEAPP_SEND_PERIODIC_MSG_EVT,
    321                 2000);
   \   000084                ; Setup parameters for call to function osal_start_timerEx
   \   000084   7CD0         MOV     R4,#-0x30
   \   000086   7D07         MOV     R5,#0x7
   \   000088   7A01         MOV     R2,#0x1
   \   00008A   7B00         MOV     R3,#0x0
   \   00008C   90....       MOV     DPTR,#SampleApp_TaskID
   \   00008F   E0           MOVX    A,@DPTR
   \   000090   F9           MOV     R1,A
   \   000091   12....       LCALL   ??osal_start_timerEx?relay
    322          
    323              // return unprocessed events
    324              return (events ^ SAMPLEAPP_SEND_PERIODIC_MSG_EVT);
   \   000094   EE           MOV     A,R6
   \   000095   6401         XRL     A,#0x1
   \   000097   FA           MOV     R2,A
   \   000098   EF           MOV     A,R7
   \   000099   80E1         SJMP    ??SampleApp_ProcessEvent_7
    325            }
    326          
    327            // Discard unknown events
    328            return 0;
   \                     ??SampleApp_ProcessEvent_9:
   \   00009B   7A00         MOV     R2,#0x0
   \   00009D   7B00         MOV     R3,#0x0
   \                     ??SampleApp_ProcessEvent_8:
   \   00009F   7F04         MOV     R7,#0x4
   \   0000A1   02....       LJMP    ?BANKED_LEAVE_XDATA
   \   0000A4                REQUIRE P1SEL
   \   0000A4                REQUIRE P1DIR
   \   0000A4                REQUIRE P1INP
   \   0000A4                REQUIRE _A_P1
    329          }
    330          
    331          
    332          /*********************************************************************
    333           * LOCAL FUNCTIONS
    334           */
    335          
    336          /*********************************************************************
    337           * @fn      SampleApp_MessageMSGCB
    338           *
    339           * @brief   Data message processor callback.  This function processes
    340           *          any incoming data - probably from other devices.  So, based
    341           *          on cluster ID, perform the intended action.
    342           *
    343           * @param   none
    344           *
    345           * @return  none
    346           */

   \                                 In  segment BANKED_CODE, align 1, keep-with-next
    347          void SampleApp_MessageMSGCB( afIncomingMSGPacket_t *pkt )
   \                     SampleApp_MessageMSGCB:
    348          {
   \   000000   74EA         MOV     A,#-0x16
   \   000002   12....       LCALL   ?BANKED_ENTER_XDATA
   \   000005                ; Saved register size: 22
   \   000005                ; Auto size: 26
   \   000005   74E6         MOV     A,#-0x1a
   \   000007   12....       LCALL   ?ALLOC_XSTACK8
    349            uint8 coor_to_end[4];//接收的无线数据（采集）
    350            uint8 coor_to_con[4];//接收的无线数据(控制)
    351            uint8 byte_len;//字节长度
                         ^
Warning[Pe550]: variable "byte_len" was set but never used
    352            uint8 end_sensor[15];
    353            uint8 end_con[3];
    354            uint8 wendu_ce1=0;//温度实时值
    355            uint8 shidu_cel=0;//湿度实时值
    356            uint16 jw_ce1=0;//co实时值
    357            uint16 lhw_ce1=0;//co实时值
    358            float temp;
    359            switch ( pkt->clusterId )
   \   00000A   8A82         MOV     DPL,R2
   \   00000C   8B83         MOV     DPH,R3
   \   00000E   A3           INC     DPTR
   \   00000F   A3           INC     DPTR
   \   000010   A3           INC     DPTR
   \   000011   A3           INC     DPTR
   \   000012   E0           MOVX    A,@DPTR
   \   000013   F5..         MOV     ?V0 + 0,A
   \   000015   A3           INC     DPTR
   \   000016   E0           MOVX    A,@DPTR
   \   000017   F5..         MOV     ?V0 + 1,A
   \   000019   78..         MOV     R0,#?V0 + 0
   \   00001B   12....       LCALL   ?US_SWITCH_DENSE
   \                     `?<Jumptable for SampleApp_MessageMSGCB>_0`:
   \   00001E   0100         DW        1
   \   000020   01           DB        1
   \   000021   ....         DW        ??SampleApp_MessageMSGCB_0
   \   000023   ....         DW        ??SampleApp_MessageMSGCB_1
   \   000025   ....         DW        ??SampleApp_MessageMSGCB_2
    360            {    
    361              case SAMPLEAPP_PERIODIC_CLUSTERID: //表示周期函数
    362                    osal_memcpy(coor_to_end,pkt->cmd.Data,pkt->cmd.DataLength);   // 对无线数据进行处理
   \                     ??SampleApp_MessageMSGCB_1:
   \   000027                ; Setup parameters for call to function osal_memcpy
   \   000027   12....       LCALL   ?Subroutine4 & 0xFFFF
   \                     ??CrossCallReturnLabel_8:
   \   00002A   12....       LCALL   ?PUSH_XSTACK_I_THREE
   \   00002D   12....       LCALL   ?Subroutine6 & 0xFFFF
   \                     ??CrossCallReturnLabel_12:
   \   000030   7419         MOV     A,#0x19
   \   000032   12....       LCALL   ?XSTACK_DISP0_8
   \   000035   AA82         MOV     R2,DPL
   \   000037   AB83         MOV     R3,DPH
   \   000039   12....       LCALL   ??osal_memcpy?relay
   \   00003C   7403         MOV     A,#0x3
   \   00003E   12....       LCALL   ?DEALLOC_XSTACK8
    363                    byte_len=pkt->cmd.DataLength;
    364                    if(coor_to_end[0]==0x03&&coor_to_end[1]==0x03)
   \   000041   7416         MOV     A,#0x16
   \   000043   12....       LCALL   ?XSTACK_DISP0_8
   \   000046   E0           MOVX    A,@DPTR
   \   000047   6403         XRL     A,#0x3
   \   000049   6003         JZ      $+5
   \   00004B   02....       LJMP    ??SampleApp_MessageMSGCB_0 & 0xFFFF
   \   00004E   7417         MOV     A,#0x17
   \   000050   12....       LCALL   ?XSTACK_DISP0_8
   \   000053   E0           MOVX    A,@DPTR
   \   000054   6403         XRL     A,#0x3
   \   000056   6003         JZ      $+5
   \   000058   02....       LJMP    ??SampleApp_MessageMSGCB_0 & 0xFFFF
    365                    {
    366                        end_sensor[0]=0x03;//地址
   \   00005B   7407         MOV     A,#0x7
   \   00005D   12....       LCALL   ?XSTACK_DISP0_8
   \   000060   7403         MOV     A,#0x3
   \   000062   F0           MOVX    @DPTR,A
    367                        end_sensor[1]=0x03;//功能代码
   \   000063   7408         MOV     A,#0x8
   \   000065   12....       LCALL   ?XSTACK_DISP0_8
   \   000068   7403         MOV     A,#0x3
   \   00006A   F0           MOVX    @DPTR,A
    368                        DHT11();  //获取温湿度
   \   00006B                ; Setup parameters for call to function DHT11
   \   00006B   12....       LCALL   ??DHT11?relay
    369                        end_sensor[2]=wendu_shi;
   \   00006E   90....       MOV     DPTR,#wendu_shi
   \   000071   E0           MOVX    A,@DPTR
   \   000072   C0E0         PUSH    A
   \   000074   7409         MOV     A,#0x9
   \   000076   12....       LCALL   ?XSTACK_DISP0_8
   \   000079   D0E0         POP     A
   \   00007B   F0           MOVX    @DPTR,A
    370                        end_sensor[3]=wendu_ge;
   \   00007C   90....       MOV     DPTR,#wendu_ge
   \   00007F   E0           MOVX    A,@DPTR
   \   000080   C0E0         PUSH    A
   \   000082   740A         MOV     A,#0xa
   \   000084   12....       LCALL   ?XSTACK_DISP0_8
   \   000087   D0E0         POP     A
   \   000089   F0           MOVX    @DPTR,A
    371                        end_sensor[4]=shidu_shi;
   \   00008A   90....       MOV     DPTR,#shidu_shi
   \   00008D   E0           MOVX    A,@DPTR
   \   00008E   C0E0         PUSH    A
   \   000090   740B         MOV     A,#0xb
   \   000092   12....       LCALL   ?XSTACK_DISP0_8
   \   000095   D0E0         POP     A
   \   000097   F0           MOVX    @DPTR,A
    372                        end_sensor[5]=shidu_ge;
   \   000098   90....       MOV     DPTR,#shidu_ge
   \   00009B   E0           MOVX    A,@DPTR
   \   00009C   C0E0         PUSH    A
   \   00009E   740C         MOV     A,#0xc
   \   0000A0   12....       LCALL   ?XSTACK_DISP0_8
   \   0000A3   D0E0         POP     A
   \   0000A5   F0           MOVX    @DPTR,A
    373                        wendu_ce1=wendu_shi*10+wendu_ge;
   \   0000A6   90....       MOV     DPTR,#wendu_ge
   \   0000A9   C082         PUSH    DPL
   \   0000AB   75F00A       MOV     B,#0xa
   \   0000AE   90....       MOV     DPTR,#wendu_shi
   \   0000B1   E0           MOVX    A,@DPTR
   \   0000B2   A4           MUL     AB
   \   0000B3   7583..       MOV     DPH,#(wendu_ge >> 8) & 0xff
   \   0000B6   D082         POP     DPL
   \   0000B8   F8           MOV     R0,A
   \   0000B9   E0           MOVX    A,@DPTR
   \   0000BA   28           ADD     A,R0
   \   0000BB   F5..         MOV     ?V0 + 13,A
    374                        shidu_cel=shidu_shi*10+shidu_ge;
   \   0000BD   90....       MOV     DPTR,#shidu_ge
   \   0000C0   C082         PUSH    DPL
   \   0000C2   75F00A       MOV     B,#0xa
   \   0000C5   90....       MOV     DPTR,#shidu_shi
   \   0000C8   E0           MOVX    A,@DPTR
   \   0000C9   A4           MUL     AB
   \   0000CA   7583..       MOV     DPH,#(shidu_ge >> 8) & 0xff
   \   0000CD   D082         POP     DPL
   \   0000CF   F8           MOV     R0,A
   \   0000D0   E0           MOVX    A,@DPTR
   \   0000D1   28           ADD     A,R0
   \   0000D2   F5..         MOV     ?V0 + 12,A
    375                        temp=3.33-get5();//获取甲烷值
   \   0000D4   75..B8       MOV     ?V0 + 0,#-0x48
   \   0000D7   75..1E       MOV     ?V0 + 1,#0x1e
   \   0000DA   75..55       MOV     ?V0 + 2,#0x55
   \   0000DD   75..40       MOV     ?V0 + 3,#0x40
   \   0000E0                ; Setup parameters for call to function get5
   \   0000E0   12....       LCALL   ??get5?relay
   \   0000E3   8A..         MOV     ?V0 + 4,R2
   \   0000E5   8B..         MOV     ?V0 + 5,R3
   \   0000E7   8C..         MOV     ?V0 + 6,R4
   \   0000E9   8D..         MOV     ?V0 + 7,R5
   \   0000EB   78..         MOV     R0,#?V0 + 0
   \   0000ED   79..         MOV     R1,#?V0 + 4
   \   0000EF   12....       LCALL   ?FLT_SUB
    376                        end_sensor[6]=(char)(temp)%10;
   \   0000F2   85....       MOV     ?V0 + 4,?V0 + 0
   \   0000F5   85....       MOV     ?V0 + 5,?V0 + 1
   \   0000F8   85....       MOV     ?V0 + 6,?V0 + 2
   \   0000FB   85....       MOV     ?V0 + 7,?V0 + 3
   \   0000FE   78..         MOV     R0,#?V0 + 4
   \   000100   12....       LCALL   ?FLT_TO_L
   \   000103   E5..         MOV     A,?V0 + 4
   \   000105   75F00A       MOV     B,#0xa
   \   000108   84           DIV     AB
   \   000109   AAF0         MOV     R2,B
   \   00010B   740D         MOV     A,#0xd
   \   00010D   12....       LCALL   ?XSTACK_DISP0_8
   \   000110   EA           MOV     A,R2
   \   000111   12....       LCALL   ?Subroutine1 & 0xFFFF
    377                        end_sensor[7]=(char)(temp*10)%10;
   \                     ??CrossCallReturnLabel_0:
   \   000114   12....       LCALL   ?L_MOV_X
   \   000117   78..         MOV     R0,#?V0 + 8
   \   000119   79..         MOV     R1,#?V0 + 4
   \   00011B   12....       LCALL   ?FLT_MUL
   \   00011E   78..         MOV     R0,#?V0 + 8
   \   000120   12....       LCALL   ?FLT_TO_L
   \   000123   E5..         MOV     A,?V0 + 8
   \   000125   75F00A       MOV     B,#0xa
   \   000128   84           DIV     AB
   \   000129   ABF0         MOV     R3,B
   \   00012B   740E         MOV     A,#0xe
   \   00012D   12....       LCALL   ?XSTACK_DISP0_8
   \   000130   EB           MOV     A,R3
   \   000131   12....       LCALL   ?Subroutine2 & 0xFFFF
    378                        end_sensor[8]=(char)(temp*100)%10;
   \                     ??CrossCallReturnLabel_2:
   \   000134   12....       LCALL   ?L_MOV_X
   \   000137   78..         MOV     R0,#?V0 + 8
   \   000139   79..         MOV     R1,#?V0 + 4
   \   00013B   12....       LCALL   ?FLT_MUL
   \   00013E   78..         MOV     R0,#?V0 + 8
   \   000140   12....       LCALL   ?FLT_TO_L
   \   000143   E5..         MOV     A,?V0 + 8
   \   000145   75F00A       MOV     B,#0xa
   \   000148   84           DIV     AB
   \   000149   ACF0         MOV     R4,B
   \   00014B   740F         MOV     A,#0xf
   \   00014D   12....       LCALL   ?XSTACK_DISP0_8
   \   000150   EC           MOV     A,R4
   \   000151   F0           MOVX    @DPTR,A
    379                        end_sensor[9]=(char)(temp*1000)%10;
   \   000152   90....       MOV     DPTR,#__Constant_447a0000
   \   000155   78..         MOV     R0,#?V0 + 4
   \   000157   12....       LCALL   ?L_MOV_X
   \   00015A   78..         MOV     R0,#?V0 + 0
   \   00015C   79..         MOV     R1,#?V0 + 4
   \   00015E   12....       LCALL   ?FLT_MUL
   \   000161   78..         MOV     R0,#?V0 + 0
   \   000163   12....       LCALL   ?FLT_TO_L
   \   000166   E5..         MOV     A,?V0 + 0
   \   000168   75F00A       MOV     B,#0xa
   \   00016B   84           DIV     AB
   \   00016C   E5F0         MOV     A,B
   \   00016E   F5..         MOV     ?V0 + 0,A
   \   000170   7410         MOV     A,#0x10
   \   000172   12....       LCALL   ?XSTACK_DISP0_8
   \   000175   E5..         MOV     A,?V0 + 0
   \   000177   F0           MOVX    @DPTR,A
    380                         jw_ce1=end_sensor[6]*1000+ end_sensor[7]*100+ end_sensor[8]*10+ end_sensor[9];
   \   000178   EA           MOV     A,R2
   \   000179   F8           MOV     R0,A
   \   00017A   75F0E8       MOV     B,#-0x18
   \   00017D   A4           MUL     AB
   \   00017E   C8           XCH     A,R0
   \   00017F   AAF0         MOV     R2,B
   \   000181   75F003       MOV     B,#0x3
   \   000184   A4           MUL     AB
   \   000185   2A           ADD     A,R2
   \   000186   F9           MOV     R1,A
   \   000187   EB           MOV     A,R3
   \   000188   12....       LCALL   ?Subroutine5 & 0xFFFF
   \                     ??CrossCallReturnLabel_10:
   \   00018B   FE           MOV     R6,A
   \   00018C   E9           MOV     A,R1
   \   00018D   3400         ADDC    A,#0x0
   \   00018F   FF           MOV     R7,A
    381                        temp=3.33-get0();//获取甲烷值
   \   000190   75..B8       MOV     ?V0 + 0,#-0x48
   \   000193   75..1E       MOV     ?V0 + 1,#0x1e
   \   000196   75..55       MOV     ?V0 + 2,#0x55
   \   000199   75..40       MOV     ?V0 + 3,#0x40
   \   00019C                ; Setup parameters for call to function get0
   \   00019C   12....       LCALL   ??get0?relay
   \   00019F   8A..         MOV     ?V0 + 4,R2
   \   0001A1   8B..         MOV     ?V0 + 5,R3
   \   0001A3   8C..         MOV     ?V0 + 6,R4
   \   0001A5   8D..         MOV     ?V0 + 7,R5
   \   0001A7   78..         MOV     R0,#?V0 + 0
   \   0001A9   79..         MOV     R1,#?V0 + 4
   \   0001AB   12....       LCALL   ?FLT_SUB
    382                        end_sensor[10]=(char)(temp)%10;
   \   0001AE   85....       MOV     ?V0 + 4,?V0 + 0
   \   0001B1   85....       MOV     ?V0 + 5,?V0 + 1
   \   0001B4   85....       MOV     ?V0 + 6,?V0 + 2
   \   0001B7   85....       MOV     ?V0 + 7,?V0 + 3
   \   0001BA   78..         MOV     R0,#?V0 + 4
   \   0001BC   12....       LCALL   ?FLT_TO_L
   \   0001BF   E5..         MOV     A,?V0 + 4
   \   0001C1   75F00A       MOV     B,#0xa
   \   0001C4   84           DIV     AB
   \   0001C5   ABF0         MOV     R3,B
   \   0001C7   7411         MOV     A,#0x11
   \   0001C9   12....       LCALL   ?XSTACK_DISP0_8
   \   0001CC   EB           MOV     A,R3
   \   0001CD   12....       LCALL   ?Subroutine1 & 0xFFFF
    383                        end_sensor[11]=(char)(temp*10)%10;
   \                     ??CrossCallReturnLabel_1:
   \   0001D0   12....       LCALL   ?L_MOV_X
   \   0001D3   78..         MOV     R0,#?V0 + 8
   \   0001D5   79..         MOV     R1,#?V0 + 4
   \   0001D7   12....       LCALL   ?FLT_MUL
   \   0001DA   78..         MOV     R0,#?V0 + 8
   \   0001DC   12....       LCALL   ?FLT_TO_L
   \   0001DF   E5..         MOV     A,?V0 + 8
   \   0001E1   75F00A       MOV     B,#0xa
   \   0001E4   84           DIV     AB
   \   0001E5   AAF0         MOV     R2,B
   \   0001E7   7412         MOV     A,#0x12
   \   0001E9   12....       LCALL   ?XSTACK_DISP0_8
   \   0001EC   EA           MOV     A,R2
   \   0001ED   12....       LCALL   ?Subroutine2 & 0xFFFF
    384                        end_sensor[12]=(char)(temp*100)%10;
   \                     ??CrossCallReturnLabel_3:
   \   0001F0   12....       LCALL   ?L_MOV_X
   \   0001F3   78..         MOV     R0,#?V0 + 8
   \   0001F5   79..         MOV     R1,#?V0 + 4
   \   0001F7   12....       LCALL   ?FLT_MUL
   \   0001FA   78..         MOV     R0,#?V0 + 8
   \   0001FC   12....       LCALL   ?FLT_TO_L
   \   0001FF   E5..         MOV     A,?V0 + 8
   \   000201   75F00A       MOV     B,#0xa
   \   000204   84           DIV     AB
   \   000205   ACF0         MOV     R4,B
   \   000207   7413         MOV     A,#0x13
   \   000209   12....       LCALL   ?XSTACK_DISP0_8
   \   00020C   EC           MOV     A,R4
   \   00020D   F0           MOVX    @DPTR,A
    385                        end_sensor[13]=(char)(temp*1000)%10;
   \   00020E   90....       MOV     DPTR,#__Constant_447a0000
   \   000211   78..         MOV     R0,#?V0 + 4
   \   000213   12....       LCALL   ?L_MOV_X
   \   000216   78..         MOV     R0,#?V0 + 0
   \   000218   79..         MOV     R1,#?V0 + 4
   \   00021A   12....       LCALL   ?FLT_MUL
   \   00021D   78..         MOV     R0,#?V0 + 0
   \   00021F   12....       LCALL   ?FLT_TO_L
   \   000222   E5..         MOV     A,?V0 + 0
   \   000224   75F00A       MOV     B,#0xa
   \   000227   84           DIV     AB
   \   000228   E5F0         MOV     A,B
   \   00022A   F5..         MOV     ?V0 + 0,A
   \   00022C   7414         MOV     A,#0x14
   \   00022E   12....       LCALL   ?XSTACK_DISP0_8
   \   000231   E5..         MOV     A,?V0 + 0
   \   000233   F0           MOVX    @DPTR,A
    386                        lhw_ce1=end_sensor[10]*1000+ end_sensor[11]*100+ end_sensor[12]*10+ end_sensor[13];
   \   000234   EB           MOV     A,R3
   \   000235   F8           MOV     R0,A
   \   000236   75F0E8       MOV     B,#-0x18
   \   000239   A4           MUL     AB
   \   00023A   C8           XCH     A,R0
   \   00023B   ABF0         MOV     R3,B
   \   00023D   75F003       MOV     B,#0x3
   \   000240   A4           MUL     AB
   \   000241   2B           ADD     A,R3
   \   000242   F9           MOV     R1,A
   \   000243   EA           MOV     A,R2
   \   000244   12....       LCALL   ?Subroutine5 & 0xFFFF
   \                     ??CrossCallReturnLabel_11:
   \   000247   F5..         MOV     ?V0 + 0,A
   \   000249   E9           MOV     A,R1
   \   00024A   3400         ADDC    A,#0x0
   \   00024C   F5..         MOV     ?V0 + 1,A
    387                       
    388                        end_sensor[14]=0x68;
   \   00024E   7415         MOV     A,#0x15
   \   000250   12....       LCALL   ?XSTACK_DISP0_8
   \   000253   7468         MOV     A,#0x68
   \   000255   F0           MOVX    @DPTR,A
    389                         if ( AF_DataRequest( &SampleApp_Periodic_DstAddr, &SampleApp_epDesc,
    390                                 SAMPLEAPP_PERIODIC_CLUSTERID,
    391                                 15,
    392                                 end_sensor,
    393                                 &SampleApp_TransID,
    394                                 AF_DISCV_ROUTE,
    395                                 AF_DEFAULT_RADIUS ) == afStatus_SUCCESS )
   \   000256                ; Setup parameters for call to function AF_DataRequest
   \   000256   75..1E       MOV     ?V0 + 2,#0x1e
   \   000259   78..         MOV     R0,#?V0 + 2
   \   00025B   12....       LCALL   ?PUSH_XSTACK_I_ONE
   \   00025E   75....       MOV     ?V0 + 2,#SampleApp_TransID & 0xff
   \   000261   75....       MOV     ?V0 + 3,#(SampleApp_TransID >> 8) & 0xff
   \   000264   78..         MOV     R0,#?V0 + 2
   \   000266   12....       LCALL   ?PUSH_XSTACK_I_TWO
   \   000269   740A         MOV     A,#0xa
   \   00026B   12....       LCALL   ?XSTACK_DISP0_8
   \   00026E   8582..       MOV     ?V0 + 2,DPL
   \   000271   8583..       MOV     ?V0 + 3,DPH
   \   000274   78..         MOV     R0,#?V0 + 2
   \   000276   12....       LCALL   ?PUSH_XSTACK_I_TWO
   \   000279   75..0F       MOV     ?V0 + 2,#0xf
   \   00027C   75..00       MOV     ?V0 + 3,#0x0
   \   00027F   78..         MOV     R0,#?V0 + 2
   \   000281   12....       LCALL   ?PUSH_XSTACK_I_TWO
   \   000284   75..01       MOV     ?V0 + 2,#0x1
   \   000287   78..         MOV     R0,#?V0 + 2
   \   000289   12....       LCALL   ?PUSH_XSTACK_I_TWO
   \   00028C   12....       LCALL   ?Subroutine7 & 0xFFFF
   \                     ??CrossCallReturnLabel_14:
   \   00028F   12....       LCALL   ?DEALLOC_XSTACK8
   \   000292   E9           MOV     A,R1
   \   000293   6003         JZ      $+5
   \   000295   02....       LJMP    ??SampleApp_MessageMSGCB_0 & 0xFFFF
    396                          {
    397                              //对传感器进行处理
    398                            if(shidu_cel>set_shidu&&wendu_ce1>set_wendu&&jw_ce1<set_jw&&lhw_ce1<set_lhw)
   \   000298   90....       MOV     DPTR,#set_shidu
   \   00029B   E0           MOVX    A,@DPTR
   \   00029C   C3           CLR     C
   \   00029D   95..         SUBB    A,?V0 + 12
   \   00029F   503C         JNC     ??SampleApp_MessageMSGCB_3
   \   0002A1   90....       MOV     DPTR,#set_wendu
   \   0002A4   E0           MOVX    A,@DPTR
   \   0002A5   C3           CLR     C
   \   0002A6   95..         SUBB    A,?V0 + 13
   \   0002A8   5033         JNC     ??SampleApp_MessageMSGCB_3
   \   0002AA   90....       MOV     DPTR,#set_jw
   \   0002AD   E0           MOVX    A,@DPTR
   \   0002AE   F8           MOV     R0,A
   \   0002AF   A3           INC     DPTR
   \   0002B0   E0           MOVX    A,@DPTR
   \   0002B1   F9           MOV     R1,A
   \   0002B2   C3           CLR     C
   \   0002B3   EE           MOV     A,R6
   \   0002B4   98           SUBB    A,R0
   \   0002B5   EF           MOV     A,R7
   \   0002B6   99           SUBB    A,R1
   \   0002B7   5024         JNC     ??SampleApp_MessageMSGCB_3
   \   0002B9   90....       MOV     DPTR,#set_lhw
   \   0002BC   E0           MOVX    A,@DPTR
   \   0002BD   F8           MOV     R0,A
   \   0002BE   A3           INC     DPTR
   \   0002BF   E0           MOVX    A,@DPTR
   \   0002C0   F9           MOV     R1,A
   \   0002C1   C3           CLR     C
   \   0002C2   E5..         MOV     A,?V0 + 0
   \   0002C4   98           SUBB    A,R0
   \   0002C5   E5..         MOV     A,?V0 + 1
   \   0002C7   99           SUBB    A,R1
   \   0002C8   5013         JNC     ??SampleApp_MessageMSGCB_3
    399                            {
    400                               P1_5=1;
   \   0002CA   D295         SETB    0x90.5
    401                               HalLedSet(HAL_LED_1,HAL_LED_MODE_ON);
   \   0002CC                ; Setup parameters for call to function HalLedSet
   \   0002CC   7A01         MOV     R2,#0x1
   \   0002CE   7901         MOV     R1,#0x1
   \   0002D0   12....       LCALL   ??HalLedSet?relay
    402                               HalLedSet(HAL_LED_2,HAL_LED_MODE_ON);
   \   0002D3                ; Setup parameters for call to function HalLedSet
   \   0002D3   7A01         MOV     R2,#0x1
   \                     ??SampleApp_MessageMSGCB_4:
   \   0002D5   7902         MOV     R1,#0x2
   \   0002D7   12....       LCALL   ??HalLedSet?relay
   \   0002DA   02....       LJMP    ??SampleApp_MessageMSGCB_0 & 0xFFFF
    403                            }
    404                            else
    405                            {
    406                               P1_5=0;
   \                     ??SampleApp_MessageMSGCB_3:
   \   0002DD   C295         CLR     0x90.5
    407                               HalLedSet(HAL_LED_1,HAL_LED_MODE_OFF);
   \   0002DF                ; Setup parameters for call to function HalLedSet
   \   0002DF   7A00         MOV     R2,#0x0
   \   0002E1   7901         MOV     R1,#0x1
   \   0002E3   12....       LCALL   ??HalLedSet?relay
    408                               HalLedSet(HAL_LED_2,HAL_LED_MODE_OFF);
   \   0002E6                ; Setup parameters for call to function HalLedSet
   \   0002E6   7A00         MOV     R2,#0x0
   \   0002E8   80EB         SJMP    ??SampleApp_MessageMSGCB_4
    409                            }
    410                          }
    411                          else
    412                          {
    413                            // Error occurred in request to send.
    414                          }            
    415                    }
    416                   break;
    417                  case  SAMPLEAPP_FLASH_CLUSTERID: //表示参数下发
    418                     osal_memcpy(coor_to_con,pkt->cmd.Data,pkt->cmd.DataLength);   // 对无线数据进行处理
   \                     ??SampleApp_MessageMSGCB_2:
   \   0002EA                ; Setup parameters for call to function osal_memcpy
   \   0002EA   12....       LCALL   ?Subroutine4 & 0xFFFF
   \                     ??CrossCallReturnLabel_9:
   \   0002ED   12....       LCALL   ?PUSH_XSTACK_I_THREE
   \   0002F0   12....       LCALL   ?Subroutine6 & 0xFFFF
   \                     ??CrossCallReturnLabel_13:
   \   0002F3   7406         MOV     A,#0x6
   \   0002F5   12....       LCALL   ?XSTACK_DISP0_8
   \   0002F8   AA82         MOV     R2,DPL
   \   0002FA   AB83         MOV     R3,DPH
   \   0002FC   12....       LCALL   ??osal_memcpy?relay
   \   0002FF   7403         MOV     A,#0x3
   \   000301   12....       LCALL   ?DEALLOC_XSTACK8
    419                      if(coor_to_con[0]==0x03)
   \   000304   7403         MOV     A,#0x3
   \   000306   12....       LCALL   ?XSTACK_DISP0_8
   \   000309   E0           MOVX    A,@DPTR
   \   00030A   6403         XRL     A,#0x3
   \   00030C   6003         JZ      $+5
   \   00030E   02....       LJMP    ??SampleApp_MessageMSGCB_0 & 0xFFFF
    420                     {
    421                       if(coor_to_con[1]==0x04)
   \   000311   7404         MOV     A,#0x4
   \   000313   12....       LCALL   ?XSTACK_DISP0_8
   \   000316   E0           MOVX    A,@DPTR
   \   000317   6404         XRL     A,#0x4
   \   000319   7051         JNZ     ??SampleApp_MessageMSGCB_5
    422                       {
    423                         set_wendu=coor_to_con[3];
   \   00031B   7406         MOV     A,#0x6
   \   00031D   12....       LCALL   ?XSTACK_DISP0_8
   \   000320   E0           MOVX    A,@DPTR
   \   000321   90....       MOV     DPTR,#set_wendu
   \   000324   12....       LCALL   ??Subroutine9_0 & 0xFFFF
    424                         end_con[0]=0x03;
    425                         end_con[1]=0x04;
   \                     ??CrossCallReturnLabel_23:
   \   000327   12....       LCALL   ?XSTACK_DISP0_8
   \   00032A   7404         MOV     A,#0x4
   \   00032C   F0           MOVX    @DPTR,A
    426                         end_con[2]=0x68;
   \   00032D   7402         MOV     A,#0x2
   \   00032F   12....       LCALL   ?XSTACK_DISP0_8
   \   000332   12....       LCALL   ?Subroutine3 & 0xFFFF
    427                         AF_DataRequest( &SampleApp_Periodic_DstAddr, &SampleApp_epDesc,
    428                                 SAMPLEAPP_FLASH_CLUSTERID,3,end_con,
    429                                 &SampleApp_TransID,
    430                                 AF_DISCV_ROUTE,
    431                                 AF_DEFAULT_RADIUS);
    432                       }
   \                     ??CrossCallReturnLabel_4:
   \   000335   12....       LCALL   ?PUSH_XSTACK_I_ONE
   \   000338   75....       MOV     ?V0 + 0,#SampleApp_TransID & 0xff
   \   00033B   75....       MOV     ?V0 + 1,#(SampleApp_TransID >> 8) & 0xff
   \   00033E   78..         MOV     R0,#?V0 + 0
   \   000340   12....       LCALL   ?PUSH_XSTACK_I_TWO
   \   000343   7403         MOV     A,#0x3
   \   000345   12....       LCALL   ?XSTACK_DISP0_8
   \   000348   8582..       MOV     ?V0 + 0,DPL
   \   00034B   8583..       MOV     ?V0 + 1,DPH
   \   00034E   78..         MOV     R0,#?V0 + 0
   \   000350   12....       LCALL   ?PUSH_XSTACK_I_TWO
   \   000353   75..03       MOV     ?V0 + 0,#0x3
   \   000356   75..00       MOV     ?V0 + 1,#0x0
   \   000359   78..         MOV     R0,#?V0 + 0
   \   00035B   12....       LCALL   ?PUSH_XSTACK_I_TWO
   \   00035E   75..02       MOV     ?V0 + 0,#0x2
   \   000361   78..         MOV     R0,#?V0 + 0
   \   000363   12....       LCALL   ?PUSH_XSTACK_I_TWO
   \   000366   12....       LCALL   ?Subroutine7 & 0xFFFF
   \                     ??CrossCallReturnLabel_15:
   \   000369   12....       LCALL   ?DEALLOC_XSTACK8
    433                        if(coor_to_con[1]==0x05)
   \                     ??SampleApp_MessageMSGCB_5:
   \   00036C   7404         MOV     A,#0x4
   \   00036E   12....       LCALL   ?XSTACK_DISP0_8
   \   000371   E0           MOVX    A,@DPTR
   \   000372   6405         XRL     A,#0x5
   \   000374   7051         JNZ     ??SampleApp_MessageMSGCB_6
    434                       {
    435                         set_shidu=coor_to_con[3];
   \   000376   7406         MOV     A,#0x6
   \   000378   12....       LCALL   ?XSTACK_DISP0_8
   \   00037B   E0           MOVX    A,@DPTR
   \   00037C   90....       MOV     DPTR,#set_shidu
   \   00037F   12....       LCALL   ??Subroutine9_0 & 0xFFFF
    436                         end_con[0]=0x03;
    437                         end_con[1]=0x05;
   \                     ??CrossCallReturnLabel_24:
   \   000382   12....       LCALL   ?XSTACK_DISP0_8
   \   000385   7405         MOV     A,#0x5
   \   000387   F0           MOVX    @DPTR,A
    438                         end_con[2]=0x68;
   \   000388   7402         MOV     A,#0x2
   \   00038A   12....       LCALL   ?XSTACK_DISP0_8
   \   00038D   12....       LCALL   ?Subroutine3 & 0xFFFF
    439                         AF_DataRequest( &SampleApp_Periodic_DstAddr, &SampleApp_epDesc,
    440                                 SAMPLEAPP_FLASH_CLUSTERID,3,end_con,
    441                                 &SampleApp_TransID,
    442                                 AF_DISCV_ROUTE,
    443                                 AF_DEFAULT_RADIUS);
    444                       }
   \                     ??CrossCallReturnLabel_5:
   \   000390   12....       LCALL   ?PUSH_XSTACK_I_ONE
   \   000393   75....       MOV     ?V0 + 0,#SampleApp_TransID & 0xff
   \   000396   75....       MOV     ?V0 + 1,#(SampleApp_TransID >> 8) & 0xff
   \   000399   78..         MOV     R0,#?V0 + 0
   \   00039B   12....       LCALL   ?PUSH_XSTACK_I_TWO
   \   00039E   7403         MOV     A,#0x3
   \   0003A0   12....       LCALL   ?XSTACK_DISP0_8
   \   0003A3   8582..       MOV     ?V0 + 0,DPL
   \   0003A6   8583..       MOV     ?V0 + 1,DPH
   \   0003A9   78..         MOV     R0,#?V0 + 0
   \   0003AB   12....       LCALL   ?PUSH_XSTACK_I_TWO
   \   0003AE   75..03       MOV     ?V0 + 0,#0x3
   \   0003B1   75..00       MOV     ?V0 + 1,#0x0
   \   0003B4   78..         MOV     R0,#?V0 + 0
   \   0003B6   12....       LCALL   ?PUSH_XSTACK_I_TWO
   \   0003B9   75..02       MOV     ?V0 + 0,#0x2
   \   0003BC   78..         MOV     R0,#?V0 + 0
   \   0003BE   12....       LCALL   ?PUSH_XSTACK_I_TWO
   \   0003C1   12....       LCALL   ?Subroutine7 & 0xFFFF
   \                     ??CrossCallReturnLabel_16:
   \   0003C4   12....       LCALL   ?DEALLOC_XSTACK8
    445                        if(coor_to_con[1]==0x06)
   \                     ??SampleApp_MessageMSGCB_6:
   \   0003C7   7404         MOV     A,#0x4
   \   0003C9   12....       LCALL   ?XSTACK_DISP0_8
   \   0003CC   E0           MOVX    A,@DPTR
   \   0003CD   6406         XRL     A,#0x6
   \   0003CF   7058         JNZ     ??SampleApp_MessageMSGCB_7
    446                       {
    447                         set_jw=coor_to_con[2]*256+coor_to_con[3];
   \   0003D1   7405         MOV     A,#0x5
   \   0003D3   12....       LCALL   ?XSTACK_DISP0_8
   \   0003D6   E0           MOVX    A,@DPTR
   \   0003D7   F9           MOV     R1,A
   \   0003D8   7406         MOV     A,#0x6
   \   0003DA   12....       LCALL   ?XSTACK_DISP0_8
   \   0003DD   E0           MOVX    A,@DPTR
   \   0003DE   90....       MOV     DPTR,#set_jw
   \   0003E1   12....       LCALL   ?Subroutine0 & 0xFFFF
    448                         end_con[0]=0x03;
    449                         end_con[1]=0x06;
   \                     ??CrossCallReturnLabel_21:
   \   0003E4   12....       LCALL   ?XSTACK_DISP0_8
   \   0003E7   7406         MOV     A,#0x6
   \   0003E9   F0           MOVX    @DPTR,A
    450                         end_con[2]=0x68;
   \   0003EA   7402         MOV     A,#0x2
   \   0003EC   12....       LCALL   ?XSTACK_DISP0_8
   \   0003EF   12....       LCALL   ?Subroutine3 & 0xFFFF
    451                         AF_DataRequest( &SampleApp_Periodic_DstAddr, &SampleApp_epDesc,
    452                                 SAMPLEAPP_FLASH_CLUSTERID,3,end_con,
    453                                 &SampleApp_TransID,
    454                                 AF_DISCV_ROUTE,
    455                                 AF_DEFAULT_RADIUS);
    456                       }
   \                     ??CrossCallReturnLabel_6:
   \   0003F2   12....       LCALL   ?PUSH_XSTACK_I_ONE
   \   0003F5   75....       MOV     ?V0 + 0,#SampleApp_TransID & 0xff
   \   0003F8   75....       MOV     ?V0 + 1,#(SampleApp_TransID >> 8) & 0xff
   \   0003FB   78..         MOV     R0,#?V0 + 0
   \   0003FD   12....       LCALL   ?PUSH_XSTACK_I_TWO
   \   000400   7403         MOV     A,#0x3
   \   000402   12....       LCALL   ?XSTACK_DISP0_8
   \   000405   8582..       MOV     ?V0 + 0,DPL
   \   000408   8583..       MOV     ?V0 + 1,DPH
   \   00040B   78..         MOV     R0,#?V0 + 0
   \   00040D   12....       LCALL   ?PUSH_XSTACK_I_TWO
   \   000410   75..03       MOV     ?V0 + 0,#0x3
   \   000413   75..00       MOV     ?V0 + 1,#0x0
   \   000416   78..         MOV     R0,#?V0 + 0
   \   000418   12....       LCALL   ?PUSH_XSTACK_I_TWO
   \   00041B   75..02       MOV     ?V0 + 0,#0x2
   \   00041E   78..         MOV     R0,#?V0 + 0
   \   000420   12....       LCALL   ?PUSH_XSTACK_I_TWO
   \   000423   12....       LCALL   ?Subroutine7 & 0xFFFF
   \                     ??CrossCallReturnLabel_17:
   \   000426   12....       LCALL   ?DEALLOC_XSTACK8
    457                        if(coor_to_con[1]==0x07)
   \                     ??SampleApp_MessageMSGCB_7:
   \   000429   7404         MOV     A,#0x4
   \   00042B   12....       LCALL   ?XSTACK_DISP0_8
   \   00042E   E0           MOVX    A,@DPTR
   \   00042F   6407         XRL     A,#0x7
   \   000431   7058         JNZ     ??SampleApp_MessageMSGCB_0
    458                       {
    459                         set_lhw=coor_to_con[2]*256+coor_to_con[3];
   \   000433   7405         MOV     A,#0x5
   \   000435   12....       LCALL   ?XSTACK_DISP0_8
   \   000438   E0           MOVX    A,@DPTR
   \   000439   F9           MOV     R1,A
   \   00043A   7406         MOV     A,#0x6
   \   00043C   12....       LCALL   ?XSTACK_DISP0_8
   \   00043F   E0           MOVX    A,@DPTR
   \   000440   90....       MOV     DPTR,#set_lhw
   \   000443   12....       LCALL   ?Subroutine0 & 0xFFFF
    460                         end_con[0]=0x03;
    461                         end_con[1]=0x07;
   \                     ??CrossCallReturnLabel_22:
   \   000446   12....       LCALL   ?XSTACK_DISP0_8
   \   000449   7407         MOV     A,#0x7
   \   00044B   F0           MOVX    @DPTR,A
    462                         end_con[2]=0x68;
   \   00044C   7402         MOV     A,#0x2
   \   00044E   12....       LCALL   ?XSTACK_DISP0_8
   \   000451   12....       LCALL   ?Subroutine3 & 0xFFFF
    463                         AF_DataRequest( &SampleApp_Periodic_DstAddr, &SampleApp_epDesc,
    464                                 SAMPLEAPP_FLASH_CLUSTERID,3,end_con,
    465                                 &SampleApp_TransID,
    466                                 AF_DISCV_ROUTE,
    467                                 AF_DEFAULT_RADIUS);
    468                       }
    469                     }
    470                break;
    471          
    472            }
   \                     ??CrossCallReturnLabel_7:
   \   000454   12....       LCALL   ?PUSH_XSTACK_I_ONE
   \   000457   75....       MOV     ?V0 + 0,#SampleApp_TransID & 0xff
   \   00045A   75....       MOV     ?V0 + 1,#(SampleApp_TransID >> 8) & 0xff
   \   00045D   78..         MOV     R0,#?V0 + 0
   \   00045F   12....       LCALL   ?PUSH_XSTACK_I_TWO
   \   000462   7403         MOV     A,#0x3
   \   000464   12....       LCALL   ?XSTACK_DISP0_8
   \   000467   8582..       MOV     ?V0 + 0,DPL
   \   00046A   8583..       MOV     ?V0 + 1,DPH
   \   00046D   78..         MOV     R0,#?V0 + 0
   \   00046F   12....       LCALL   ?PUSH_XSTACK_I_TWO
   \   000472   75..03       MOV     ?V0 + 0,#0x3
   \   000475   75..00       MOV     ?V0 + 1,#0x0
   \   000478   78..         MOV     R0,#?V0 + 0
   \   00047A   12....       LCALL   ?PUSH_XSTACK_I_TWO
   \   00047D   75..02       MOV     ?V0 + 0,#0x2
   \   000480   78..         MOV     R0,#?V0 + 0
   \   000482   12....       LCALL   ?PUSH_XSTACK_I_TWO
   \   000485   12....       LCALL   ?Subroutine7 & 0xFFFF
   \                     ??CrossCallReturnLabel_18:
   \   000488   12....       LCALL   ?DEALLOC_XSTACK8
    473          }
   \                     ??SampleApp_MessageMSGCB_0:
   \   00048B   741A         MOV     A,#0x1a
   \   00048D   12....       LCALL   ?DEALLOC_XSTACK8
   \   000490   7F0E         MOV     R7,#0xe
   \   000492   02....       LJMP    ?BANKED_LEAVE_XDATA
   \   000495                REQUIRE _A_P1

   \                                 In  segment BANKED_CODE, align 1, keep-with-next
   \                     ?Subroutine7:
   \   000000   7920         MOV     R1,#0x20
   \   000002   7C..         MOV     R4,#SampleApp_epDesc & 0xff
   \   000004   7D..         MOV     R5,#(SampleApp_epDesc >> 8) & 0xff
   \   000006   7A..         MOV     R2,#SampleApp_Periodic_DstAddr & 0xff
   \   000008   7B..         MOV     R3,#(SampleApp_Periodic_DstAddr >> 8) & 0xff
   \   00000A   12....       LCALL   ??AF_DataRequest?relay
   \   00000D   7409         MOV     A,#0x9
   \   00000F   22           RET

   \                                 In  segment BANKED_CODE, align 1, keep-with-next
   \                     ?Subroutine6:
   \   000000   EA           MOV     A,R2
   \   000001   241F         ADD     A,#0x1f
   \   000003   F582         MOV     DPL,A
   \   000005   EB           MOV     A,R3
   \   000006   3400         ADDC    A,#0x0
   \   000008   F583         MOV     DPH,A
   \   00000A   E0           MOVX    A,@DPTR
   \   00000B   FC           MOV     R4,A
   \   00000C   A3           INC     DPTR
   \   00000D   E0           MOVX    A,@DPTR
   \   00000E   FD           MOV     R5,A
   \   00000F   22           RET

   \                                 In  segment BANKED_CODE, align 1, keep-with-next
   \                     ?Subroutine5:
   \   000000   75F064       MOV     B,#0x64
   \   000003   A4           MUL     AB
   \   000004   FA           MOV     R2,A
   \   000005   ABF0         MOV     R3,B
   \   000007   E8           MOV     A,R0
   \   000008   2A           ADD     A,R2
   \   000009   F8           MOV     R0,A
   \   00000A   E9           MOV     A,R1
   \   00000B   3B           ADDC    A,R3
   \   00000C   F9           MOV     R1,A
   \   00000D   EC           MOV     A,R4
   \   00000E   75F00A       MOV     B,#0xa
   \   000011   A4           MUL     AB
   \   000012   FA           MOV     R2,A
   \   000013   ABF0         MOV     R3,B
   \   000015   E8           MOV     A,R0
   \   000016   2A           ADD     A,R2
   \   000017   F8           MOV     R0,A
   \   000018   E9           MOV     A,R1
   \   000019   3B           ADDC    A,R3
   \   00001A   F9           MOV     R1,A
   \   00001B   E8           MOV     A,R0
   \   00001C   25..         ADD     A,?V0 + 0
   \   00001E   22           RET

   \                                 In  segment BANKED_CODE, align 1, keep-with-next
   \                     ?Subroutine4:
   \   000000   EA           MOV     A,R2
   \   000001   2421         ADD     A,#0x21
   \   000003   F582         MOV     DPL,A
   \   000005   EB           MOV     A,R3
   \   000006   3400         ADDC    A,#0x0
   \   000008   F583         MOV     DPH,A
   \   00000A   E0           MOVX    A,@DPTR
   \   00000B   F5..         MOV     ?V0 + 0,A
   \   00000D   A3           INC     DPTR
   \   00000E   E0           MOVX    A,@DPTR
   \   00000F   F5..         MOV     ?V0 + 1,A
   \   000011   75..00       MOV     ?V0 + 2,#0x0
   \   000014   78..         MOV     R0,#?V0 + 0
   \   000016   22           RET

   \                                 In  segment BANKED_CODE, align 1, keep-with-next
   \                     ?Subroutine3:
   \   000000   7468         MOV     A,#0x68
   \   000002   F0           MOVX    @DPTR,A
   \   000003                ; Setup parameters for call to function AF_DataRequest
   \   000003                ; Setup parameters for call to function AF_DataRequest
   \   000003                ; Setup parameters for call to function AF_DataRequest
   \   000003                ; Setup parameters for call to function AF_DataRequest
   \   000003   75..1E       MOV     ?V0 + 0,#0x1e
   \   000006   78..         MOV     R0,#?V0 + 0
   \   000008   22           RET

   \                                 In  segment BANKED_CODE, align 1, keep-with-next
   \                     ?Subroutine2:
   \   000000   12....       LCALL   ?Subroutine8 & 0xFFFF
   \                     ??CrossCallReturnLabel_19:
   \   000003   90....       MOV     DPTR,#__Constant_42c80000
   \   000006   78..         MOV     R0,#?V0 + 4
   \   000008   22           RET

   \                                 In  segment BANKED_CODE, align 1, keep-with-next
   \                     ?Subroutine1:
   \   000000   12....       LCALL   ?Subroutine8 & 0xFFFF
   \                     ??CrossCallReturnLabel_20:
   \   000003   90....       MOV     DPTR,#__Constant_41200000
   \   000006   78..         MOV     R0,#?V0 + 4
   \   000008   22           RET

   \                                 In  segment BANKED_CODE, align 1, keep-with-next
   \                     ?Subroutine8:
   \   000000   F0           MOVX    @DPTR,A
   \   000001   85....       MOV     ?V0 + 8,?V0 + 0
   \   000004   85....       MOV     ?V0 + 9,?V0 + 1
   \   000007   85....       MOV     ?V0 + 10,?V0 + 2
   \   00000A   85....       MOV     ?V0 + 11,?V0 + 3
   \   00000D   22           RET

   \                                 In  segment BANKED_CODE, align 1, keep-with-next
   \                     ?Subroutine0:
   \   000000   F0           MOVX    @DPTR,A
   \   000001   A3           INC     DPTR
   \   000002   E9           MOV     A,R1
   \   000003                REQUIRE ??Subroutine9_0
   \   000003                ; // Fall through to label ??Subroutine9_0

   \                                 In  segment BANKED_CODE, align 1, keep-with-next
   \                     ??Subroutine9_0:
   \   000000   F0           MOVX    @DPTR,A
   \   000001   85..82       MOV     DPL,?XSP + 0
   \   000004   85..83       MOV     DPH,?XSP + 1
   \   000007   7403         MOV     A,#0x3
   \   000009   F0           MOVX    @DPTR,A
   \   00000A   7401         MOV     A,#0x1
   \   00000C   22           RET
    474          
    475          /*********************************************************************
    476           * @fn      SampleApp_SendPeriodicMessage
    477           *
    478           * @brief   Send the periodic message.
    479           *
    480           * @param   none
    481           *
    482           * @return  none
    483           */

   \                                 In  segment BANKED_CODE, align 1, keep-with-next
    484          void SampleApp_SendPeriodicMessage( void )
   \                     SampleApp_SendPeriodicMessage:
    485          {
   \   000000                ; Saved register size: 0
   \   000000                ; Auto size: 0
    486            
    487            
    488            
    489          }
   \   000000   02....       LJMP    ?BRET
    490          
    491          /*********************************************************************
    492           * @fn      SampleApp_SendFlashMessage
    493           *
    494           * @brief   Send the flash message to group 1.
    495           *
    496           * @param   flashTime - in milliseconds
    497           *
    498           * @return  none
    499           */

   \                                 In  segment BANKED_CODE, align 1, keep-with-next
    500          void SampleApp_SendFlashMessage( uint16 flashTime )
   \                     SampleApp_SendFlashMessage:
    501          {
   \   000000                ; Saved register size: 0
   \   000000                ; Auto size: 0
    502           
    503          }
   \   000000   02....       LJMP    ?BRET

   \                                 In  segment XDATA_ID, align 1, keep-with-next
   \                     `?<Initializer for set_wendu>`:
   \   000000   0F           DB 15

   \                                 In  segment XDATA_ID, align 1, keep-with-next
   \                     `?<Initializer for set_shidu>`:
   \   000000   3C           DB 60

   \                                 In  segment XDATA_ID, align 1, keep-with-next
   \                     `?<Initializer for set_jw>`:
   \   000000   D007         DW 2000

   \                                 In  segment XDATA_ID, align 1, keep-with-next
   \                     `?<Initializer for set_lhw>`:
   \   000000   D007         DW 2000

   \                                 In  segment BANK_RELAYS, align 1
   \                     ??SampleApp_Init?relay:
   \   000000   12....       LCALL   ?BDISPATCH
   \   000003   ......       DC24    SampleApp_Init

   \                                 In  segment BANK_RELAYS, align 1
   \                     ??SampleApp_ProcessEvent?relay:
   \   000000   12....       LCALL   ?BDISPATCH
   \   000003   ......       DC24    SampleApp_ProcessEvent

   \                                 In  segment BANK_RELAYS, align 1
   \                     ??SampleApp_MessageMSGCB?relay:
   \   000000   12....       LCALL   ?BDISPATCH
   \   000003   ......       DC24    SampleApp_MessageMSGCB

   \                                 In  segment BANK_RELAYS, align 1
   \                     ??SampleApp_SendPeriodicMessage?relay:
   \   000000   12....       LCALL   ?BDISPATCH
   \   000003   ......       DC24    SampleApp_SendPeriodicMessage

   \                                 In  segment BANK_RELAYS, align 1
   \                     ??SampleApp_SendFlashMessage?relay:
   \   000000   12....       LCALL   ?BDISPATCH
   \   000003   ......       DC24    SampleApp_SendFlashMessage

   \                                 In  segment XDATA_ROM_C, align 1
   \                     `?<Constant "Group 1">`:
   \   000000   47726F75     DB "Group 1"
   \            70203100

   \                                 In  segment XDATA_ROM_C, align 1
   \                     __Constant_41200000:
   \   000000   00002041     DD 41200000H

   \                                 In  segment XDATA_ROM_C, align 1
   \                     __Constant_42c80000:
   \   000000   0000C842     DD 42C80000H

   \                                 In  segment XDATA_ROM_C, align 1
   \                     __Constant_447a0000:
   \   000000   00007A44     DD 447A0000H
    504          
    505          
    506          

   Maximum stack usage in bytes:

     Function                      ISTACK PSTACK XSTACK
     --------                      ------ ------ ------
     SampleApp_Init                    0      0     14
       -> afRegister                   0      0     22
       -> RegisterForKeys              0      0     22
       -> osal_memcpy                  0      0     28
       -> aps_AddGroup                 0      0     22
     SampleApp_MessageMSGCB            2      0     69
       -> osal_memcpy                  0      0    102
       -> DHT11                        0      0     96
       -> get5                         0      0     96
       -> get0                         0      0     96
       -> AF_DataRequest               0      0    114
       -> HalLedSet                    0      0     96
       -> HalLedSet                    0      0     96
       -> HalLedSet                    0      0     96
       -> HalLedSet                    0      0     96
       -> osal_memcpy                  0      0    102
       -> AF_DataRequest               0      0    114
       -> AF_DataRequest               0      0    114
       -> AF_DataRequest               0      0    114
       -> AF_DataRequest               0      0    114
     SampleApp_ProcessEvent            0      0     12
       -> osal_msg_receive             0      0     24
       -> HalLedSet                    0      0     24
       -> HalLedSet                    0      0     24
       -> HalLedBlink                  0      0     24
       -> osal_msg_deallocate          0      0     24
       -> osal_msg_receive             0      0     24
       -> SampleApp_MessageMSGCB       0      0     24
       -> osal_start_timerEx           0      0     24
     SampleApp_SendFlashMessage        0      0      0
     SampleApp_SendPeriodicMessage     0      0      0


   Segment part sizes:

     Function/Label                        Bytes
     --------------                        -----
     _A_P1                                    1
     P1SEL                                    1
     P1INP                                    1
     P1DIR                                    1
     LedState                                 1
     set_wendu                                1
     set_shidu                                1
     set_jw                                   2
     set_lhw                                  2
     SampleApp_ClusterList                    8
     SampleApp_SimpleDesc                    12
     SampleApp_epDesc                         6
     SampleApp_TaskID                         1
     SampleApp_NwkState                       1
     SampleApp_TransID                        1
     SampleApp_Periodic_DstAddr              12
     SampleApp_Flash_DstAddr                 12
     SampleApp_Group                         18
     SampleAppPeriodicCounter                 1
     SampleAppFlashCounter                    1
     sensor_value                            20
     SampleApp_Init                         150
     SampleApp_ProcessEvent                 164
     SampleApp_MessageMSGCB                1173
     ?Subroutine7                            16
     ?Subroutine6                            16
     ?Subroutine5                            31
     ?Subroutine4                            23
     ?Subroutine3                             9
     ?Subroutine2                             9
     ?Subroutine1                             9
     ?Subroutine8                            14
     ?Subroutine0                             3
     ??Subroutine9_0                         13
     SampleApp_SendPeriodicMessage            3
     SampleApp_SendFlashMessage               3
     ?<Initializer for set_wendu>             1
     ?<Initializer for set_shidu>             1
     ?<Initializer for set_jw>                2
     ?<Initializer for set_lhw>               2
     ??SampleApp_Init?relay                   6
     ??SampleApp_ProcessEvent?relay           6
     ??SampleApp_MessageMSGCB?relay           6
     ??SampleApp_SendPeriodicMessage?relay    6
     ??SampleApp_SendFlashMessage?relay       6
     ?<Constant "Group 1">                    8
     __Constant_41200000                      4
     __Constant_42c80000                      4
     __Constant_447a0000                      4

 
 1 636 bytes in segment BANKED_CODE
    30 bytes in segment BANK_RELAYS
     4 bytes in segment SFR_AN
     6 bytes in segment XDATA_I
     6 bytes in segment XDATA_ID
    40 bytes in segment XDATA_ROM_C
    74 bytes in segment XDATA_Z
 
 1 672 bytes of CODE  memory
    28 bytes of CONST memory (+ 12 bytes shared)
     0 bytes of DATA  memory (+  4 bytes shared)
    80 bytes of XDATA memory

Errors: none
Warnings: 2
