///////////////////////////////////////////////////////////////////////////////
//                                                                            /
// IAR C/C++ Compiler V8.10.1.40194/W32 for 8051        16/Dec/2018  13:33:32 /
// Copyright 2004-2011 IAR Systems AB.                                        /
//                                                                            /
//    Core               =  plain                                             /
//    Code model         =  banked                                            /
//    Data model         =  large                                             /
//    Calling convention =  xdata reentrant                                   /
//    Constant location  =  data_rom                                          /
//    Dptr setup         =  1,16                                              /
//    Source file        =  F:\2019\Œ¬ “¥Û≈Ô\œ¬Œªª˙≥Ã–Ú£®CC2530£©\ZStack-CC25 /
//                          30-2.3.0-1.4.0\Projects\zstack\Samples\SampleApp\ /
//                          Source\SampleApp-end2.c                           /
//    Command line       =  -f F:\2019\Œ¬ “¥Û≈Ô\œ¬Œªª˙≥Ã–Ú£®CC2530£©\ZStack-C /
//                          C2530-2.3.0-1.4.0\Projects\zstack\Samples\SampleA /
//                          pp\CC2530DB\..\..\..\Tools\CC2530DB\f8wEndev.cfg  /
//                          (-DCPU32MHZ -DROOT=__near_func -DBLINK_LEDS) -f   /
//                          F:\2019\Œ¬ “¥Û≈Ô\œ¬Œªª˙≥Ã–Ú£®CC2530£©\ZStack-CC25 /
//                          30-2.3.0-1.4.0\Projects\zstack\Samples\SampleApp\ /
//                          CC2530DB\..\..\..\Tools\CC2530DB\f8wConfig.cfg    /
//                          (-DSECURE=0 -DZG_SECURE_DYNAMIC=0 -DREFLECTOR     /
//                          -DDEFAULT_CHANLIST=0x00000800                     /
//                          -DZDAPP_CONFIG_PAN_ID=0xFFF1                      /
//                          -DNWK_START_DELAY=100 -DEXTENDED_JOINING_RANDOM_M /
//                          ASK=0x007F -DBEACON_REQUEST_DELAY=100             /
//                          -DBEACON_REQ_DELAY_MASK=0x00FF                    /
//                          -DROUTE_EXPIRY_TIME=30 -DAPSC_ACK_WAIT_DURATION_P /
//                          OLLED=3000 -DNWK_INDIRECT_MSG_TIMEOUT=7           /
//                          -DMAX_RREQ_ENTRIES=8 -DAPSC_MAX_FRAME_RETRIES=3   /
//                          -DNWK_MAX_DATA_RETRIES=2                          /
//                          -DMAX_POLL_FAILURE_RETRIES=2 -DMAX_BCAST=9        /
//                          -DAPS_MAX_GROUPS=16 -DMAX_RTG_ENTRIES=40          /
//                          -DNWK_MAX_BINDING_ENTRIES=4                       /
//                          -DMAX_BINDING_CLUSTER_IDS=4                       /
//                          "-DDEFAULT_KEY={0x01, 0x03, 0x05, 0x07, 0x09,     /
//                          0x0B, 0x0D, 0x0F, 0x00, 0x02, 0x04, 0x06, 0x08,   /
//                          0x0A, 0x0C, 0x0D}" -DMAC_MAX_FRAME_SIZE=116       /
//                          "-DCONST=const __code" -DGENERIC=__generic        /
//                          -DRFD_RCVC_ALWAYS_ON=FALSE -DPOLL_RATE=1000       /
//                          -DQUEUED_POLL_RATE=100 -DRESPONSE_POLL_RATE=100)  /
//                          -DREJOIN_POLL_RATE=440 F:\2019\Œ¬ “¥Û≈Ô\œ¬Œªª˙≥Ã– /
//                          Ú£®CC2530£©\ZStack-CC2530-2.3.0-1.4.0\Projects\zs /
//                          tack\Samples\SampleApp\Source\SampleApp-end2.c    /
//                          -D ZIGBEEPRO -D NWK_AUTO_POLL -D ZTOOL_P1 -D      /
//                          xMT_TASK -D xMT_SYS_FUNC -D xMT_ZDO_FUNC -D       /
//                          LCD_SUPPORTED=DEBUG -lC                           /
//                          F:\2019\Œ¬ “¥Û≈Ô\œ¬Œªª˙≥Ã–Ú£®CC2530£©\ZStack-CC25 /
//                          30-2.3.0-1.4.0\Projects\zstack\Samples\SampleApp\ /
//                          CC2530DB\EndDeviceEB-Pro\List\ -lA                /
//                          F:\2019\Œ¬ “¥Û≈Ô\œ¬Œªª˙≥Ã–Ú£®CC2530£©\ZStack-CC25 /
//                          30-2.3.0-1.4.0\Projects\zstack\Samples\SampleApp\ /
//                          CC2530DB\EndDeviceEB-Pro\List\ --diag_suppress    /
//                          Pe001,Pa010 -o F:\2019\Œ¬ “¥Û≈Ô\œ¬Œªª˙≥Ã–Ú£®CC253 /
//                          0£©\ZStack-CC2530-2.3.0-1.4.0\Projects\zstack\Sam /
//                          ples\SampleApp\CC2530DB\EndDeviceEB-Pro\Obj\ -e   /
//                          --debug --core=plain --dptr=16,1                  /
//                          --data_model=large --code_model=banked            /
//                          --calling_convention=xdata_reentrant              /
//                          --place_constants=data_rom --nr_virtual_regs 16   /
//                          -I F:\2019\Œ¬ “¥Û≈Ô\œ¬Œªª˙≥Ã–Ú£®CC2530£©\ZStack-C /
//                          C2530-2.3.0-1.4.0\Projects\zstack\Samples\SampleA /
//                          pp\CC2530DB\ -I F:\2019\Œ¬ “¥Û≈Ô\œ¬Œªª˙≥Ã–Ú£®CC25 /
//                          30£©\ZStack-CC2530-2.3.0-1.4.0\Projects\zstack\Sa /
//                          mples\SampleApp\CC2530DB\..\SOURCE\ -I            /
//                          F:\2019\Œ¬ “¥Û≈Ô\œ¬Œªª˙≥Ã–Ú£®CC2530£©\ZStack-CC25 /
//                          30-2.3.0-1.4.0\Projects\zstack\Samples\SampleApp\ /
//                          CC2530DB\..\..\..\ZMAIN\TI2530DB\ -I              /
//                          F:\2019\Œ¬ “¥Û≈Ô\œ¬Œªª˙≥Ã–Ú£®CC2530£©\ZStack-CC25 /
//                          30-2.3.0-1.4.0\Projects\zstack\Samples\SampleApp\ /
//                          CC2530DB\..\..\..\..\..\COMPONENTS\MT\ -I         /
//                          F:\2019\Œ¬ “¥Û≈Ô\œ¬Œªª˙≥Ã–Ú£®CC2530£©\ZStack-CC25 /
//                          30-2.3.0-1.4.0\Projects\zstack\Samples\SampleApp\ /
//                          CC2530DB\..\..\..\..\..\COMPONENTS\HAL\INCLUDE\   /
//                          -I F:\2019\Œ¬ “¥Û≈Ô\œ¬Œªª˙≥Ã–Ú£®CC2530£©\ZStack-C /
//                          C2530-2.3.0-1.4.0\Projects\zstack\Samples\SampleA /
//                          pp\CC2530DB\..\..\..\..\..\COMPONENTS\HAL\TARGET\ /
//                          CC2530EB\ -I F:\2019\Œ¬ “¥Û≈Ô\œ¬Œªª˙≥Ã–Ú£®CC2530£ /
//                          ©\ZStack-CC2530-2.3.0-1.4.0\Projects\zstack\Sampl /
//                          es\SampleApp\CC2530DB\..\..\..\..\..\COMPONENTS\O /
//                          SAL\MCU\CCSOC\ -I F:\2019\Œ¬ “¥Û≈Ô\œ¬Œªª˙≥Ã–Ú£®CC /
//                          2530£©\ZStack-CC2530-2.3.0-1.4.0\Projects\zstack\ /
//                          Samples\SampleApp\CC2530DB\..\..\..\..\..\COMPONE /
//                          NTS\OSAL\INCLUDE\ -I F:\2019\Œ¬ “¥Û≈Ô\œ¬Œªª˙≥Ã–Ú£ /
//                          ®CC2530£©\ZStack-CC2530-2.3.0-1.4.0\Projects\zsta /
//                          ck\Samples\SampleApp\CC2530DB\..\..\..\..\..\COMP /
//                          ONENTS\STACK\AF\ -I F:\2019\Œ¬ “¥Û≈Ô\œ¬Œªª˙≥Ã–Ú£® /
//                          CC2530£©\ZStack-CC2530-2.3.0-1.4.0\Projects\zstac /
//                          k\Samples\SampleApp\CC2530DB\..\..\..\..\..\COMPO /
//                          NENTS\STACK\NWK\ -I F:\2019\Œ¬ “¥Û≈Ô\œ¬Œªª˙≥Ã–Ú£® /
//                          CC2530£©\ZStack-CC2530-2.3.0-1.4.0\Projects\zstac /
//                          k\Samples\SampleApp\CC2530DB\..\..\..\..\..\COMPO /
//                          NENTS\STACK\SEC\ -I F:\2019\Œ¬ “¥Û≈Ô\œ¬Œªª˙≥Ã–Ú£® /
//                          CC2530£©\ZStack-CC2530-2.3.0-1.4.0\Projects\zstac /
//                          k\Samples\SampleApp\CC2530DB\..\..\..\..\..\COMPO /
//                          NENTS\STACK\SAPI\ -I F:\2019\Œ¬ “¥Û≈Ô\œ¬Œªª˙≥Ã–Ú£ /
//                          ®CC2530£©\ZStack-CC2530-2.3.0-1.4.0\Projects\zsta /
//                          ck\Samples\SampleApp\CC2530DB\..\..\..\..\..\COMP /
//                          ONENTS\STACK\SYS\ -I F:\2019\Œ¬ “¥Û≈Ô\œ¬Œªª˙≥Ã–Ú£ /
//                          ®CC2530£©\ZStack-CC2530-2.3.0-1.4.0\Projects\zsta /
//                          ck\Samples\SampleApp\CC2530DB\..\..\..\..\..\COMP /
//                          ONENTS\STACK\ZDO\ -I F:\2019\Œ¬ “¥Û≈Ô\œ¬Œªª˙≥Ã–Ú£ /
//                          ®CC2530£©\ZStack-CC2530-2.3.0-1.4.0\Projects\zsta /
//                          ck\Samples\SampleApp\CC2530DB\..\..\..\..\..\COMP /
//                          ONENTS\ZMAC\F8W\ -I F:\2019\Œ¬ “¥Û≈Ô\œ¬Œªª˙≥Ã–Ú£® /
//                          CC2530£©\ZStack-CC2530-2.3.0-1.4.0\Projects\zstac /
//                          k\Samples\SampleApp\CC2530DB\..\..\..\..\..\COMPO /
//                          NENTS\ZMAC\ -I F:\2019\Œ¬ “¥Û≈Ô\œ¬Œªª˙≥Ã–Ú£®CC253 /
//                          0£©\ZStack-CC2530-2.3.0-1.4.0\Projects\zstack\Sam /
//                          ples\SampleApp\CC2530DB\..\..\..\..\..\COMPONENTS /
//                          \SERVICES\SADDR\ -I F:\2019\Œ¬ “¥Û≈Ô\œ¬Œªª˙≥Ã–Ú£® /
//                          CC2530£©\ZStack-CC2530-2.3.0-1.4.0\Projects\zstac /
//                          k\Samples\SampleApp\CC2530DB\..\..\..\..\..\COMPO /
//                          NENTS\SERVICES\SDATA\ -I                          /
//                          F:\2019\Œ¬ “¥Û≈Ô\œ¬Œªª˙≥Ã–Ú£®CC2530£©\ZStack-CC25 /
//                          30-2.3.0-1.4.0\Projects\zstack\Samples\SampleApp\ /
//                          CC2530DB\..\..\..\..\..\COMPONENTS\MAC\INCLUDE\   /
//                          -I F:\2019\Œ¬ “¥Û≈Ô\œ¬Œªª˙≥Ã–Ú£®CC2530£©\ZStack-C /
//                          C2530-2.3.0-1.4.0\Projects\zstack\Samples\SampleA /
//                          pp\CC2530DB\..\..\..\..\..\COMPONENTS\MAC\HIGH_LE /
//                          VEL\ -I F:\2019\Œ¬ “¥Û≈Ô\œ¬Œªª˙≥Ã–Ú£®CC2530£©\ZSt /
//                          ack-CC2530-2.3.0-1.4.0\Projects\zstack\Samples\Sa /
//                          mpleApp\CC2530DB\..\..\..\..\..\COMPONENTS\MAC\LO /
//                          W_LEVEL\srf04\ -I F:\2019\Œ¬ “¥Û≈Ô\œ¬Œªª˙≥Ã–Ú£®CC /
//                          2530£©\ZStack-CC2530-2.3.0-1.4.0\Projects\zstack\ /
//                          Samples\SampleApp\CC2530DB\..\..\..\..\..\COMPONE /
//                          NTS\MAC\LOW_LEVEL\srf04\SINGLE_CHIP\ -Ohz         /
//                          --require_prototypes                              /
//    List file          =  F:\2019\Œ¬ “¥Û≈Ô\œ¬Œªª˙≥Ã–Ú£®CC2530£©\ZStack-CC25 /
//                          30-2.3.0-1.4.0\Projects\zstack\Samples\SampleApp\ /
//                          CC2530DB\EndDeviceEB-Pro\List\SampleApp-end2.s51  /
//                                                                            /
//                                                                            /
///////////////////////////////////////////////////////////////////////////////

        NAME `SampleApp-end2`

        RTMODEL "__SystemLibrary", "CLib"
        RTMODEL "__calling_convention", "xdata_reentrant"
        RTMODEL "__code_model", "banked"
        RTMODEL "__core", "plain"
        RTMODEL "__data_model", "large"
        RTMODEL "__dptr_size", "16"
        RTMODEL "__extended_stack", "disabled"
        RTMODEL "__location_for_constants", "data"
        RTMODEL "__number_of_dptrs", "1"
        RTMODEL "__rt_version", "1"

        RSEG DOVERLAY:DATA:NOROOT(0)
        RSEG IOVERLAY:IDATA:NOROOT(0)
        RSEG ISTACK:IDATA:NOROOT(0)
        RSEG PSTACK:XDATA:NOROOT(0)
        RSEG XSTACK:XDATA:NOROOT(0)

        EXTERN ?ALLOC_XSTACK8
        EXTERN ?BANKED_ENTER_XDATA
        EXTERN ?BANKED_LEAVE_XDATA
        EXTERN ?BDISPATCH
        EXTERN ?BRET
        EXTERN ?DEALLOC_XSTACK8
        EXTERN ?FLT_MUL
        EXTERN ?FLT_TO_L
        EXTERN ?L_MOV_X
        EXTERN ?PUSH_XSTACK_I_ONE
        EXTERN ?PUSH_XSTACK_I_THREE
        EXTERN ?PUSH_XSTACK_I_TWO
        EXTERN ?US_DIV_MOD
        EXTERN ?US_SWITCH_DENSE
        EXTERN ?V0
        EXTERN ?XSP
        EXTERN ?XSTACK_DISP0_8
        EXTERN __INIT_XDATA_I
        EXTERN __INIT_XDATA_Z

        PUBLIC ??SampleApp_Init?relay
        FUNCTION ??SampleApp_Init?relay,0203H
        PUBLIC ??SampleApp_MessageMSGCB?relay
        FUNCTION ??SampleApp_MessageMSGCB?relay,0203H
        PUBLIC ??SampleApp_ProcessEvent?relay
        FUNCTION ??SampleApp_ProcessEvent?relay,0203H
        PUBLIC ??SampleApp_SendFlashMessage?relay
        FUNCTION ??SampleApp_SendFlashMessage?relay,0203H
        PUBLIC ??SampleApp_SendPeriodicMessage?relay
        FUNCTION ??SampleApp_SendPeriodicMessage?relay,0203H
        PUBLIC ??delay_10us?relay
        FUNCTION ??delay_10us?relay,0203H
        PUBLIC ??delay_20us?relay
        FUNCTION ??delay_20us?relay,0203H
        PUBLIC ??delay_us?relay
        FUNCTION ??delay_us?relay,0203H
        PUBLIC LedState
        PUBWEAK P2DIR
        PUBWEAK P2SEL
        PUBLIC SampleAppFlashCounter
        PUBLIC SampleAppPeriodicCounter
        PUBLIC SampleApp_ClusterList
        PUBLIC SampleApp_Flash_DstAddr
        PUBLIC SampleApp_Group
        PUBLIC SampleApp_Init
        FUNCTION SampleApp_Init,021203H
        ARGFRAME XSTACK, 0, STACK
        LOCFRAME XSTACK, 14, STACK
        PUBLIC SampleApp_MessageMSGCB
        FUNCTION SampleApp_MessageMSGCB,0a1203H
        ARGFRAME XSTACK, 12, STACK
        ARGFRAME IOVERLAY, 0, STATIC
        ARGFRAME DOVERLAY, 0, STATIC
        LOCFRAME ISTACK, 1, STACK
        LOCFRAME XSTACK, 55, STACK
        PUBLIC SampleApp_NwkState
        PUBLIC SampleApp_Periodic_DstAddr
        PUBLIC SampleApp_ProcessEvent
        FUNCTION SampleApp_ProcessEvent,021203H
        ARGFRAME XSTACK, 0, STACK
        LOCFRAME XSTACK, 12, STACK
        PUBLIC SampleApp_SendFlashMessage
        FUNCTION SampleApp_SendFlashMessage,0203H
        ARGFRAME XSTACK, 0, STACK
        PUBLIC SampleApp_SendPeriodicMessage
        FUNCTION SampleApp_SendPeriodicMessage,0203H
        ARGFRAME XSTACK, 0, STACK
        PUBLIC SampleApp_SimpleDesc
        PUBLIC SampleApp_TaskID
        PUBLIC SampleApp_TransID
        PUBLIC SampleApp_epDesc
        PUBWEAK _A_P2
        PUBWEAK __Constant_41200000
        PUBWEAK __Constant_42c80000
        PUBWEAK __Constant_447a0000
        PUBLIC delay_10us
        FUNCTION delay_10us,021203H
        ARGFRAME XSTACK, 0, STACK
        LOCFRAME ISTACK, 2, STACK
        PUBLIC delay_20us
        FUNCTION delay_20us,021203H
        ARGFRAME XSTACK, 46, STACK
        ARGFRAME IOVERLAY, 0, STATIC
        ARGFRAME DOVERLAY, 0, STATIC
        LOCFRAME ISTACK, 2, STACK
        PUBLIC delay_us
        FUNCTION delay_us,021203H
        ARGFRAME XSTACK, 0, STACK
        LOCFRAME ISTACK, 2, STACK
        PUBLIC sensor_value
        PUBLIC set_gz
        
        CFI Names cfiNames0
        CFI StackFrame CFA_SP SP IDATA
        CFI StackFrame CFA_PSP16 PSP16 XDATA
        CFI StackFrame CFA_XSP16 XSP16 XDATA
        CFI StaticOverlayFrame CFA_IOVERLAY IOVERLAY
        CFI StaticOverlayFrame CFA_DOVERLAY DOVERLAY
        CFI Resource `PSW.CY`:1, `B.BR0`:1, `B.BR1`:1, `B.BR2`:1, `B.BR3`:1
        CFI Resource `B.BR4`:1, `B.BR5`:1, `B.BR6`:1, `B.BR7`:1, `VB.BR8`:1
        CFI Resource `VB.BR9`:1, `VB.BR10`:1, `VB.BR11`:1, `VB.BR12`:1
        CFI Resource `VB.BR13`:1, `VB.BR14`:1, `VB.BR15`:1, VB:8, B:8, A:8
        CFI Resource PSW:8, DPL0:8, DPH0:8, R0:8, R1:8, R2:8, R3:8, R4:8, R5:8
        CFI Resource R6:8, R7:8, V0:8, V1:8, V2:8, V3:8, V4:8, V5:8, V6:8, V7:8
        CFI Resource V8:8, V9:8, V10:8, V11:8, V12:8, V13:8, V14:8, V15:8, SP:8
        CFI Resource PSPH:8, PSPL:8, PSP16:16, XSPH:8, XSPL:8, XSP16:16
        CFI VirtualResource ?RET:24
        CFI Resource ?BRET_EXT:8
        CFI VirtualResource ?RET_HIGH:8, ?RET_LOW:8
        CFI ResourceParts PSP16 PSPH, PSPL
        CFI ResourceParts XSP16 XSPH, XSPL
        CFI ResourceParts ?RET ?BRET_EXT, ?RET_HIGH, ?RET_LOW
        CFI EndNames cfiNames0
        
        CFI Common cfiCommon0 Using cfiNames0
        CFI CodeAlign 1
        CFI DataAlign -1
        CFI ReturnAddress ?RET CODE
        CFI CFA_DOVERLAY Used
        CFI CFA_IOVERLAY Used
        CFI CFA_SP SP+-3
        CFI CFA_PSP16 PSP16+0
        CFI CFA_XSP16 XSP16+0
        CFI `PSW.CY` SameValue
        CFI `B.BR0` SameValue
        CFI `B.BR1` SameValue
        CFI `B.BR2` SameValue
        CFI `B.BR3` SameValue
        CFI `B.BR4` SameValue
        CFI `B.BR5` SameValue
        CFI `B.BR6` SameValue
        CFI `B.BR7` SameValue
        CFI `VB.BR8` SameValue
        CFI `VB.BR9` SameValue
        CFI `VB.BR10` SameValue
        CFI `VB.BR11` SameValue
        CFI `VB.BR12` SameValue
        CFI `VB.BR13` SameValue
        CFI `VB.BR14` SameValue
        CFI `VB.BR15` SameValue
        CFI VB SameValue
        CFI B Undefined
        CFI A Undefined
        CFI PSW SameValue
        CFI DPL0 SameValue
        CFI DPH0 SameValue
        CFI R0 Undefined
        CFI R1 Undefined
        CFI R2 Undefined
        CFI R3 Undefined
        CFI R4 Undefined
        CFI R5 Undefined
        CFI R6 SameValue
        CFI R7 SameValue
        CFI V0 SameValue
        CFI V1 SameValue
        CFI V2 SameValue
        CFI V3 SameValue
        CFI V4 SameValue
        CFI V5 SameValue
        CFI V6 SameValue
        CFI V7 SameValue
        CFI V8 SameValue
        CFI V9 SameValue
        CFI V10 SameValue
        CFI V11 SameValue
        CFI V12 SameValue
        CFI V13 SameValue
        CFI V14 SameValue
        CFI V15 SameValue
        CFI PSPH Undefined
        CFI PSPL Undefined
        CFI XSPH Undefined
        CFI XSPL Undefined
        CFI ?RET Concat
        CFI ?BRET_EXT Frame(CFA_SP, 3)
        CFI ?RET_HIGH Frame(CFA_SP, 2)
        CFI ?RET_LOW Frame(CFA_SP, 1)
        CFI EndCommon cfiCommon0
        
        
        CFI Common cfiCommon1 Using cfiNames0
        CFI CodeAlign 1
        CFI DataAlign -1
        CFI ReturnAddress ?RET CODE
        CFI CFA_DOVERLAY Used
        CFI CFA_IOVERLAY Used
        CFI CFA_SP SP+-2
        CFI CFA_PSP16 PSP16+0
        CFI CFA_XSP16 XSP16+0
        CFI `PSW.CY` SameValue
        CFI `B.BR0` SameValue
        CFI `B.BR1` SameValue
        CFI `B.BR2` SameValue
        CFI `B.BR3` SameValue
        CFI `B.BR4` SameValue
        CFI `B.BR5` SameValue
        CFI `B.BR6` SameValue
        CFI `B.BR7` SameValue
        CFI `VB.BR8` SameValue
        CFI `VB.BR9` SameValue
        CFI `VB.BR10` SameValue
        CFI `VB.BR11` SameValue
        CFI `VB.BR12` SameValue
        CFI `VB.BR13` SameValue
        CFI `VB.BR14` SameValue
        CFI `VB.BR15` SameValue
        CFI VB SameValue
        CFI B SameValue
        CFI A SameValue
        CFI PSW SameValue
        CFI DPL0 SameValue
        CFI DPH0 SameValue
        CFI R0 SameValue
        CFI R1 SameValue
        CFI R2 SameValue
        CFI R3 SameValue
        CFI R4 SameValue
        CFI R5 SameValue
        CFI R6 SameValue
        CFI R7 SameValue
        CFI V0 SameValue
        CFI V1 SameValue
        CFI V2 SameValue
        CFI V3 SameValue
        CFI V4 SameValue
        CFI V5 SameValue
        CFI V6 SameValue
        CFI V7 SameValue
        CFI V8 SameValue
        CFI V9 SameValue
        CFI V10 SameValue
        CFI V11 SameValue
        CFI V12 SameValue
        CFI V13 SameValue
        CFI V14 SameValue
        CFI V15 SameValue
        CFI PSPH Undefined
        CFI PSPL Undefined
        CFI XSPH Undefined
        CFI XSPL Undefined
        CFI ?RET Concat
        CFI ?BRET_EXT SameValue
        CFI ?RET_HIGH Frame(CFA_SP, 2)
        CFI ?RET_LOW Frame(CFA_SP, 1)
        CFI EndCommon cfiCommon1
        
afRegister          SYMBOL "afRegister"
RegisterForKeys     SYMBOL "RegisterForKeys"
osal_memcpy         SYMBOL "osal_memcpy"
aps_AddGroup        SYMBOL "aps_AddGroup"
osal_msg_receive    SYMBOL "osal_msg_receive"
HalLedSet           SYMBOL "HalLedSet"
HalLedBlink         SYMBOL "HalLedBlink"
osal_msg_deallocate SYMBOL "osal_msg_deallocate"
osal_start_timerEx  SYMBOL "osal_start_timerEx"
get6                SYMBOL "get6"
Onboard_wait        SYMBOL "Onboard_wait"
AF_DataRequest      SYMBOL "AF_DataRequest"
??AF_DataRequest?relay SYMBOL "?relay", AF_DataRequest
??HalLedBlink?relay SYMBOL "?relay", HalLedBlink
??HalLedSet?relay   SYMBOL "?relay", HalLedSet
??Onboard_wait?relay SYMBOL "?relay", Onboard_wait
??RegisterForKeys?relay SYMBOL "?relay", RegisterForKeys
??afRegister?relay  SYMBOL "?relay", afRegister
??aps_AddGroup?relay SYMBOL "?relay", aps_AddGroup
??get6?relay        SYMBOL "?relay", get6
??osal_memcpy?relay SYMBOL "?relay", osal_memcpy
??osal_msg_deallocate?relay SYMBOL "?relay", osal_msg_deallocate
??osal_msg_receive?relay SYMBOL "?relay", osal_msg_receive
??osal_start_timerEx?relay SYMBOL "?relay", osal_start_timerEx
SampleApp_Init      SYMBOL "SampleApp_Init"
??SampleApp_Init?relay SYMBOL "?relay", SampleApp_Init
SampleApp_MessageMSGCB SYMBOL "SampleApp_MessageMSGCB"
??SampleApp_MessageMSGCB?relay SYMBOL "?relay", SampleApp_MessageMSGCB
SampleApp_ProcessEvent SYMBOL "SampleApp_ProcessEvent"
??SampleApp_ProcessEvent?relay SYMBOL "?relay", SampleApp_ProcessEvent
SampleApp_SendFlashMessage SYMBOL "SampleApp_SendFlashMessage"
??SampleApp_SendFlashMessage?relay SYMBOL "?relay", SampleApp_SendFlashMessage
SampleApp_SendPeriodicMessage SYMBOL "SampleApp_SendPeriodicMessage"
??SampleApp_SendPeriodicMessage?relay SYMBOL "?relay", SampleApp_SendPeriodicMessage
delay_10us          SYMBOL "delay_10us"
??delay_10us?relay  SYMBOL "?relay", delay_10us
delay_20us          SYMBOL "delay_20us"
??delay_20us?relay  SYMBOL "?relay", delay_20us
delay_us            SYMBOL "delay_us"
??delay_us?relay    SYMBOL "?relay", delay_us

        EXTERN afRegister
        FUNCTION afRegister,0202H
        ARGFRAME ISTACK, 0, STACK
        ARGFRAME PSTACK, 0, STACK
        ARGFRAME XSTACK, 11, STACK
        ARGFRAME IOVERLAY, 0, STATIC
        ARGFRAME DOVERLAY, 0, STATIC
        EXTERN RegisterForKeys
        FUNCTION RegisterForKeys,0202H
        ARGFRAME ISTACK, 0, STACK
        ARGFRAME PSTACK, 0, STACK
        ARGFRAME XSTACK, 11, STACK
        ARGFRAME IOVERLAY, 0, STATIC
        ARGFRAME DOVERLAY, 0, STATIC
        EXTERN osal_memcpy
        FUNCTION osal_memcpy,0202H
        ARGFRAME ISTACK, 0, STACK
        ARGFRAME PSTACK, 0, STACK
        ARGFRAME XSTACK, 49, STACK
        ARGFRAME IOVERLAY, 0, STATIC
        ARGFRAME DOVERLAY, 0, STATIC
        EXTERN aps_AddGroup
        FUNCTION aps_AddGroup,0202H
        ARGFRAME ISTACK, 0, STACK
        ARGFRAME PSTACK, 0, STACK
        ARGFRAME XSTACK, 11, STACK
        ARGFRAME IOVERLAY, 0, STATIC
        ARGFRAME DOVERLAY, 0, STATIC
        EXTERN osal_msg_receive
        FUNCTION osal_msg_receive,0202H
        ARGFRAME ISTACK, 0, STACK
        ARGFRAME PSTACK, 0, STACK
        ARGFRAME XSTACK, 12, STACK
        ARGFRAME IOVERLAY, 0, STATIC
        ARGFRAME DOVERLAY, 0, STATIC
        EXTERN HalLedSet
        FUNCTION HalLedSet,0202H
        ARGFRAME ISTACK, 0, STACK
        ARGFRAME PSTACK, 0, STACK
        ARGFRAME XSTACK, 46, STACK
        ARGFRAME IOVERLAY, 0, STATIC
        ARGFRAME DOVERLAY, 0, STATIC
        EXTERN HalLedBlink
        FUNCTION HalLedBlink,0202H
        ARGFRAME ISTACK, 0, STACK
        ARGFRAME PSTACK, 0, STACK
        ARGFRAME XSTACK, 12, STACK
        ARGFRAME IOVERLAY, 0, STATIC
        ARGFRAME DOVERLAY, 0, STATIC
        EXTERN osal_msg_deallocate
        FUNCTION osal_msg_deallocate,0202H
        ARGFRAME ISTACK, 0, STACK
        ARGFRAME PSTACK, 0, STACK
        ARGFRAME XSTACK, 12, STACK
        ARGFRAME IOVERLAY, 0, STATIC
        ARGFRAME DOVERLAY, 0, STATIC
        EXTERN osal_start_timerEx
        FUNCTION osal_start_timerEx,0202H
        ARGFRAME ISTACK, 0, STACK
        ARGFRAME PSTACK, 0, STACK
        ARGFRAME XSTACK, 12, STACK
        ARGFRAME IOVERLAY, 0, STATIC
        ARGFRAME DOVERLAY, 0, STATIC
        EXTERN get6
        FUNCTION get6,0202H
        ARGFRAME ISTACK, 0, STACK
        ARGFRAME PSTACK, 0, STACK
        ARGFRAME XSTACK, 46, STACK
        ARGFRAME IOVERLAY, 0, STATIC
        ARGFRAME DOVERLAY, 0, STATIC
        EXTERN Onboard_wait
        FUNCTION Onboard_wait,0202H
        ARGFRAME ISTACK, 2, STACK
        ARGFRAME PSTACK, 0, STACK
        ARGFRAME XSTACK, 46, STACK
        ARGFRAME IOVERLAY, 0, STATIC
        ARGFRAME DOVERLAY, 0, STATIC
        EXTERN AF_DataRequest
        FUNCTION AF_DataRequest,0202H
        ARGFRAME ISTACK, 0, STACK
        ARGFRAME PSTACK, 0, STACK
        ARGFRAME XSTACK, 55, STACK
        ARGFRAME IOVERLAY, 0, STATIC
        ARGFRAME DOVERLAY, 0, STATIC
        EXTERN ??AF_DataRequest?relay
        FUNCTION ??AF_DataRequest?relay,00H
        EXTERN ??HalLedBlink?relay
        FUNCTION ??HalLedBlink?relay,00H
        EXTERN ??HalLedSet?relay
        FUNCTION ??HalLedSet?relay,00H
        EXTERN ??Onboard_wait?relay
        FUNCTION ??Onboard_wait?relay,00H
        EXTERN ??RegisterForKeys?relay
        FUNCTION ??RegisterForKeys?relay,00H
        EXTERN ??afRegister?relay
        FUNCTION ??afRegister?relay,00H
        EXTERN ??aps_AddGroup?relay
        FUNCTION ??aps_AddGroup?relay,00H
        EXTERN ??get6?relay
        FUNCTION ??get6?relay,00H
        EXTERN ??osal_memcpy?relay
        FUNCTION ??osal_memcpy?relay,00H
        EXTERN ??osal_msg_deallocate?relay
        FUNCTION ??osal_msg_deallocate?relay,00H
        EXTERN ??osal_msg_receive?relay
        FUNCTION ??osal_msg_receive?relay,00H
        EXTERN ??osal_start_timerEx?relay
        FUNCTION ??osal_start_timerEx?relay,00H

// F:\2019\Œ¬ “¥Û≈Ô\œ¬Œªª˙≥Ã–Ú£®CC2530£©\ZStack-CC2530-2.3.0-1.4.0\Projects\zstack\Samples\SampleApp\Source\SampleApp-end2.c
//    1 /**************************************************************************************************
//    2   Filename:       SampleApp.c
//    3   Revised:        $Date: 2009-03-18 15:56:27 -0700 (Wed, 18 Mar 2009) $
//    4   Revision:       $Revision: 19453 $
//    5 
//    6   Description:    Sample Application (no Profile).
//    7 
//    8 
//    9   Copyright 2007 Texas Instruments Incorporated. All rights reserved.
//   10 
//   11   IMPORTANT: Your use of this Software is limited to those specific rights
//   12   granted under the terms of a software license agreement between the user
//   13   who downloaded the software, his/her employer (which must be your employer)
//   14   and Texas Instruments Incorporated (the "License").  You may not use this
//   15   Software unless you agree to abide by the terms of the License. The License
//   16   limits your use, and you acknowledge, that the Software may not be modified,
//   17   copied or distributed unless embedded on a Texas Instruments microcontroller
//   18   or used solely and exclusively in conjunction with a Texas Instruments radio
//   19   frequency transceiver, which is integrated into your product.  Other than for
//   20   the foregoing purpose, you may not use, reproduce, copy, prepare derivative
//   21   works of, modify, distribute, perform, display or sell this Software and/or
//   22   its documentation for any purpose.
//   23 
//   24   YOU FURTHER ACKNOWLEDGE AND AGREE THAT THE SOFTWARE AND DOCUMENTATION ARE
//   25   PROVIDED ìAS IS?WITHOUT WARRANTY OF ANY KIND, EITHER EXPRESS OR IMPLIED,
//   26   INCLUDING WITHOUT LIMITATION, ANY WARRANTY OF MERCHANTABILITY, TITLE,
//   27   NON-INFRINGEMENT AND FITNESS FOR A PARTICULAR PURPOSE. IN NO EVENT SHALL
//   28   TEXAS INSTRUMENTS OR ITS LICENSORS BE LIABLE OR OBLIGATED UNDER CONTRACT,
//   29   NEGLIGENCE, STRICT LIABILITY, CONTRIBUTION, BREACH OF WARRANTY, OR OTHER
//   30   LEGAL EQUITABLE THEORY ANY DIRECT OR INDIRECT DAMAGES OR EXPENSES
//   31   INCLUDING BUT NOT LIMITED TO ANY INCIDENTAL, SPECIAL, INDIRECT, PUNITIVE
//   32   OR CONSEQUENTIAL DAMAGES, LOST PROFITS OR LOST DATA, COST OF PROCUREMENT
//   33   OF SUBSTITUTE GOODS, TECHNOLOGY, SERVICES, OR ANY CLAIMS BY THIRD PARTIES
//   34   (INCLUDING BUT NOT LIMITED TO ANY DEFENSE THEREOF), OR OTHER SIMILAR COSTS.
//   35 
//   36   Should you have any questions regarding your right to use this Software,
//   37   contact Texas Instruments Incorporated at www.TI.com.
//   38 **************************************************************************************************/
//   39 
//   40 /*********************************************************************
//   41   This application isn't intended to do anything useful, it is
//   42   intended to be a simple example of an application's structure.
//   43 
//   44   This application sends it's messages either as broadcast or
//   45   broadcast filtered group messages.  The other (more normal)
//   46   message addressing is unicast.  Most of the other sample
//   47   applications are written to support the unicast message model.
//   48 
//   49   Key control:
//   50     SW1:  Sends a flash command to all devices in Group 1.
//   51     SW2:  Adds/Removes (toggles) this device in and out
//   52           of Group 1.  This will enable and disable the
//   53           reception of the flash command.
//   54 *********************************************************************/
//   55 
//   56 /*********************************************************************
//   57  * INCLUDES
//   58  */
//   59 #include "OSAL.h"
//   60 #include "ZGlobals.h"
//   61 #include "AF.h"
//   62 #include "aps_groups.h"
//   63 #include "ZDApp.h"
//   64 
//   65 #include "SampleApp.h"
//   66 #include "SampleAppHw.h"
//   67 
//   68 #include "OnBoard.h"

        ASEGN SFR_AN:DATA:NOROOT,0a0H
// union <unnamed> volatile __sfr _A_P2
_A_P2:
        DATA8
        DS 1

        ASEGN SFR_AN:DATA:NOROOT,0f5H
// unsigned char volatile __sfr P2SEL
P2SEL:
        DATA8
        DS 1

        ASEGN SFR_AN:DATA:NOROOT,0ffH
// unsigned char volatile __sfr P2DIR
P2DIR:
        DATA8
        DS 1
//   69 
//   70 /* HAL */
//   71 #include "hal_lcd.h"
//   72 #include "hal_led.h"
//   73 #include "hal_key.h"
//   74 #include "ADC.h"
//   75 #include "dht11.h"
//   76 
//   77 //≥¨…˘≤®“˝Ω≈¡¨Ω”∂®“Â
//   78 #define Echo P2_0
//   79 #define Trig P2_1
//   80 /*********************************************************************
//   81  * MACROS
//   82  */
//   83 
//   84 /*********************************************************************
//   85  * CONSTANTS
//   86  */
//   87 
//   88 /*********************************************************************
//   89  * TYPEDEFS
//   90  */
//   91 
//   92 /*********************************************************************
//   93  * GLOBAL VARIABLES
//   94  */

        RSEG XDATA_Z:XDATA:NOROOT(0)
        DATA8
//   95 uint8 LedState = 0;
LedState:
        DS 1
        REQUIRE __INIT_XDATA_Z

        RSEG XDATA_I:XDATA:NOROOT(0)
//   96 uint16 set_gz=2000;//…Ë÷√µƒπ‚’’÷µ
set_gz:
        DATA16
        DS 2
        REQUIRE `?<Initializer for set_gz>`
        REQUIRE __INIT_XDATA_I
//   97 
//   98 // This list should be filled with Application specific Cluster IDs.

        RSEG XDATA_ROM_C:CONST:REORDER:NOROOT(0)
        DATA8
//   99 const cId_t SampleApp_ClusterList[SAMPLEAPP_MAX_CLUSTERS] =
SampleApp_ClusterList:
        DATA16
        DW 1
        DW 2
        DW 3
        DW 4
//  100 {
//  101   SAMPLEAPP_PERIODIC_CLUSTERID,
//  102   SAMPLEAPP_FLASH_CLUSTERID,
//  103   SAMPLEAPP_COM_CLUSTERID,      
//  104   SAMPLEAPP_P2P_CLUSTERID      
//  105 };
//  106 

        RSEG XDATA_ROM_C:CONST:REORDER:NOROOT(0)
        DATA8
//  107 const SimpleDescriptionFormat_t SampleApp_SimpleDesc =
SampleApp_SimpleDesc:
        DB 20
        DATA16
        DW 3848
        DW 1
        DATA8
        DB 0
        DB 4
        DATA16
        DW SampleApp_ClusterList
        DATA8
        DB 4
        DATA16
        DW SampleApp_ClusterList
//  108 {
//  109   SAMPLEAPP_ENDPOINT,              //  int Endpoint;
//  110   SAMPLEAPP_PROFID,                //  uint16 AppProfId[2];
//  111   SAMPLEAPP_DEVICEID,              //  uint16 AppDeviceId[2];
//  112   SAMPLEAPP_DEVICE_VERSION,        //  int   AppDevVer:4;
//  113   SAMPLEAPP_FLAGS,                 //  int   AppFlags:4;
//  114   SAMPLEAPP_MAX_CLUSTERS,          //  uint8  AppNumInClusters;
//  115   (cId_t *)SampleApp_ClusterList,  //  uint8 *pAppInClusterList;
//  116   SAMPLEAPP_MAX_CLUSTERS,          //  uint8  AppNumInClusters;
//  117   (cId_t *)SampleApp_ClusterList   //  uint8 *pAppInClusterList;
//  118 };
//  119 
//  120 // This is the Endpoint/Interface description.  It is defined here, but
//  121 // filled-in in SampleApp_Init().  Another way to go would be to fill
//  122 // in the structure here and make it a "const" (in code space).  The
//  123 // way it's defined in this sample app it is define in RAM.

        RSEG XDATA_Z:XDATA:NOROOT(0)
        DATA8
//  124 endPointDesc_t SampleApp_epDesc;
SampleApp_epDesc:
        DS 6
        REQUIRE __INIT_XDATA_Z
//  125 
//  126 /*********************************************************************
//  127  * EXTERNAL VARIABLES
//  128  */
//  129 
//  130 /*********************************************************************
//  131  * EXTERNAL FUNCTIONS
//  132  */
//  133 
//  134 /*********************************************************************
//  135  * LOCAL VARIABLES
//  136  */

        RSEG XDATA_Z:XDATA:NOROOT(0)
        DATA8
//  137 uint8 SampleApp_TaskID;   // Task ID for internal task/event processing
SampleApp_TaskID:
        DS 1
        REQUIRE __INIT_XDATA_Z
//  138                           // This variable will be received when
//  139                           // SampleApp_Init() is called.

        RSEG XDATA_Z:XDATA:NOROOT(0)
        DATA8
//  140 devStates_t SampleApp_NwkState;
SampleApp_NwkState:
        DS 1
        REQUIRE __INIT_XDATA_Z
//  141 

        RSEG XDATA_Z:XDATA:NOROOT(0)
        DATA8
//  142 uint8 SampleApp_TransID;  // This is the unique message ID (counter)
SampleApp_TransID:
        DS 1
        REQUIRE __INIT_XDATA_Z
//  143 

        RSEG XDATA_Z:XDATA:NOROOT(0)
        DATA8
//  144 afAddrType_t SampleApp_Periodic_DstAddr;  //π„≤•
SampleApp_Periodic_DstAddr:
        DS 12
        REQUIRE __INIT_XDATA_Z

        RSEG XDATA_Z:XDATA:NOROOT(0)
        DATA8
//  145 afAddrType_t SampleApp_Flash_DstAddr;//◊È≤•
SampleApp_Flash_DstAddr:
        DS 12
        REQUIRE __INIT_XDATA_Z
//  146 

        RSEG XDATA_Z:XDATA:NOROOT(0)
        DATA8
//  147 aps_Group_t SampleApp_Group;
SampleApp_Group:
        DS 18
        REQUIRE __INIT_XDATA_Z
//  148 

        RSEG XDATA_Z:XDATA:NOROOT(0)
        DATA8
//  149 uint8 SampleAppPeriodicCounter = 0;
SampleAppPeriodicCounter:
        DS 1
        REQUIRE __INIT_XDATA_Z

        RSEG XDATA_Z:XDATA:NOROOT(0)
        DATA8
//  150 uint8 SampleAppFlashCounter = 0;
SampleAppFlashCounter:
        DS 1
        REQUIRE __INIT_XDATA_Z

        RSEG XDATA_Z:XDATA:NOROOT(0)
        DATA8
//  151 uint8 sensor_value[20];//±£¥Ê¥´∏–∆˜÷µ
sensor_value:
        DS 20
        REQUIRE __INIT_XDATA_Z
//  152 void delay_us(void); //1 us—” ±
//  153 void delay_10us(void); //10 us—” ±
//  154 void delay_20us(void); //20 us—” ±
//  155 
//  156 /*********************************************************************
//  157  * LOCAL FUNCTIONS
//  158  */
//  159 void SampleApp_HandleKeys( uint8 shift, uint8 keys );
//  160 void SampleApp_MessageMSGCB( afIncomingMSGPacket_t *pckt );
//  161 void SampleApp_SendPeriodicMessage( void );
//  162 void SampleApp_SendFlashMessage( uint16 flashTime );
//  163 /*********************************************************************
//  164  * NETWORK LAYER CALLBACKS
//  165  */
//  166 
//  167 /*********************************************************************
//  168  * PUBLIC FUNCTIONS
//  169  */
//  170 
//  171 /*********************************************************************
//  172  * @fn      SampleApp_Init
//  173  *
//  174  * @brief   Initialization function for the Generic App Task.
//  175  *          This is called during initialization and should contain
//  176  *          any application specific initialization (ie. hardware
//  177  *          initialization/setup, table initialization, power up
//  178  *          notificaiton ... ).
//  179  *
//  180  * @param   task_id - the ID assigned by OSAL.  This ID should be
//  181  *                    used to send messages and set timers.
//  182  *
//  183  * @return  none
//  184  */

        RSEG BANKED_CODE:CODE:NOROOT(0)
//  185 void SampleApp_Init( uint8 task_id )
SampleApp_Init:
        CFI Block cfiBlock0 Using cfiCommon0
        CFI Function SampleApp_Init
        CODE
//  186 {
        FUNCALL SampleApp_Init, afRegister
        LOCFRAME ISTACK, 0, STACK
        LOCFRAME PSTACK, 0, STACK
        LOCFRAME XSTACK, 11, STACK
        LOCFRAME IOVERLAY, 0, STATIC
        LOCFRAME DOVERLAY, 0, STATIC
        ARGFRAME ISTACK, 0, STACK
        ARGFRAME PSTACK, 0, STACK
        ARGFRAME XSTACK, 11, STACK
        ARGFRAME IOVERLAY, 0, STATIC
        ARGFRAME DOVERLAY, 0, STATIC
        FUNCALL SampleApp_Init, RegisterForKeys
        LOCFRAME ISTACK, 0, STACK
        LOCFRAME PSTACK, 0, STACK
        LOCFRAME XSTACK, 11, STACK
        LOCFRAME IOVERLAY, 0, STATIC
        LOCFRAME DOVERLAY, 0, STATIC
        ARGFRAME ISTACK, 0, STACK
        ARGFRAME PSTACK, 0, STACK
        ARGFRAME XSTACK, 11, STACK
        ARGFRAME IOVERLAY, 0, STATIC
        ARGFRAME DOVERLAY, 0, STATIC
        FUNCALL SampleApp_Init, osal_memcpy
        LOCFRAME ISTACK, 0, STACK
        LOCFRAME PSTACK, 0, STACK
        LOCFRAME XSTACK, 14, STACK
        LOCFRAME IOVERLAY, 0, STATIC
        LOCFRAME DOVERLAY, 0, STATIC
        ARGFRAME ISTACK, 0, STACK
        ARGFRAME PSTACK, 0, STACK
        ARGFRAME XSTACK, 14, STACK
        ARGFRAME IOVERLAY, 0, STATIC
        ARGFRAME DOVERLAY, 0, STATIC
        FUNCALL SampleApp_Init, aps_AddGroup
        LOCFRAME ISTACK, 0, STACK
        LOCFRAME PSTACK, 0, STACK
        LOCFRAME XSTACK, 11, STACK
        LOCFRAME IOVERLAY, 0, STATIC
        LOCFRAME DOVERLAY, 0, STATIC
        ARGFRAME ISTACK, 0, STACK
        ARGFRAME PSTACK, 0, STACK
        ARGFRAME XSTACK, 11, STACK
        ARGFRAME IOVERLAY, 0, STATIC
        ARGFRAME DOVERLAY, 0, STATIC
        MOV     A,#-0xb
        LCALL   ?BANKED_ENTER_XDATA
        CFI DPH0 load(1, XDATA, add(CFA_XSP16, literal(-1)))
        CFI DPL0 load(1, XDATA, add(CFA_XSP16, literal(-2)))
        CFI ?BRET_EXT load(1, XDATA, add(CFA_XSP16, literal(-3)))
        CFI ?RET_HIGH load(1, XDATA, add(CFA_XSP16, literal(-4)))
        CFI ?RET_LOW load(1, XDATA, add(CFA_XSP16, literal(-5)))
        CFI R7 load(1, XDATA, add(CFA_XSP16, literal(-6)))
        CFI V2 load(1, XDATA, add(CFA_XSP16, literal(-7)))
        CFI V1 load(1, XDATA, add(CFA_XSP16, literal(-8)))
        CFI V0 load(1, XDATA, add(CFA_XSP16, literal(-9)))
        CFI VB load(1, XDATA, add(CFA_XSP16, literal(-10)))
        CFI R6 load(1, XDATA, add(CFA_XSP16, literal(-11)))
        CFI CFA_SP SP+0
        CFI CFA_XSP16 add(XSP16, 11)
        ; Saved register size: 11
        ; Auto size: 0
        MOV     A,R1
//  187   SampleApp_TaskID = task_id;
        MOV     DPTR,#SampleApp_TaskID
        MOVX    @DPTR,A
//  188   SampleApp_NwkState = DEV_INIT;
        MOV     DPTR,#SampleApp_NwkState
        MOV     A,#0x1
        MOVX    @DPTR,A
//  189   SampleApp_TransID = 0;
        MOV     DPTR,#SampleApp_TransID
        CLR     A
        MOVX    @DPTR,A
//  190 
//  191  
//  192   
//  193   // Device hardware initialization can be added here or in main() (Zmain.c).
//  194   // If the hardware is application specific - add it here.
//  195   // If the hardware is other parts of the device add it in main().
//  196 
//  197  #if defined ( BUILD_ALL_DEVICES )
//  198   // The "Demo" target is setup to have BUILD_ALL_DEVICES and HOLD_AUTO_START
//  199   // We are looking at a jumper (defined in SampleAppHw.c) to be jumpered
//  200   // together - if they are - we will start up a coordinator. Otherwise,
//  201   // the device will start as a router.
//  202   if ( readCoordinatorJumper() )
//  203     zgDeviceLogicalType = ZG_DEVICETYPE_COORDINATOR;
//  204   else
//  205     zgDeviceLogicalType = ZG_DEVICETYPE_ROUTER;
//  206 #endif // BUILD_ALL_DEVICES
//  207 
//  208 #if defined ( HOLD_AUTO_START )
//  209   // HOLD_AUTO_START is a compile option that will surpress ZDApp
//  210   //  from starting the device and wait for the application to
//  211   //  start the device.
//  212   ZDOInitDevice(0);
//  213 #endif
//  214 
//  215   // Setup for the periodic message's destination address
//  216   // Broadcast to everyone
//  217   SampleApp_Periodic_DstAddr.addrMode = (afAddrMode_t)AddrBroadcast;
        MOV     DPTR,#SampleApp_Periodic_DstAddr + 8
        MOV     A,#0xf
        MOVX    @DPTR,A
//  218   SampleApp_Periodic_DstAddr.endPoint = SAMPLEAPP_ENDPOINT;
        INC     DPTR
        MOV     A,#0x14
        MOVX    @DPTR,A
//  219   SampleApp_Periodic_DstAddr.addr.shortAddr = 0xFFFF;
        MOV     DPTR,#SampleApp_Periodic_DstAddr
        MOV     A,#-0x1
        MOVX    @DPTR,A
        INC     DPTR
        MOVX    @DPTR,A
//  220 
//  221   // Setup for the flash command's destination address - Group 1
//  222   SampleApp_Flash_DstAddr.addrMode = (afAddrMode_t)afAddrGroup;
        MOV     DPTR,#SampleApp_Flash_DstAddr + 8
        MOV     A,#0x1
        MOVX    @DPTR,A
//  223   SampleApp_Flash_DstAddr.endPoint = SAMPLEAPP_ENDPOINT;
        INC     DPTR
        MOV     A,#0x14
        MOVX    @DPTR,A
//  224   SampleApp_Flash_DstAddr.addr.shortAddr = SAMPLEAPP_FLASH_GROUP; //◊È∫≈1
        MOV     DPTR,#SampleApp_Flash_DstAddr
        MOV     A,#0x1
        MOVX    @DPTR,A
        INC     DPTR
        CLR     A
        MOVX    @DPTR,A
//  225   
//  226   // Fill out the endpoint description.
//  227   SampleApp_epDesc.endPoint = SAMPLEAPP_ENDPOINT;
        MOV     DPTR,#SampleApp_epDesc
        MOV     A,#0x14
        MOVX    @DPTR,A
//  228   SampleApp_epDesc.task_id = &SampleApp_TaskID;
        INC     DPTR
        MOV     A,#SampleApp_TaskID & 0xff
        MOVX    @DPTR,A
        INC     DPTR
        MOV     A,#(SampleApp_TaskID >> 8) & 0xff
        MOVX    @DPTR,A
//  229   SampleApp_epDesc.simpleDesc
//  230             = (SimpleDescriptionFormat_t *)&SampleApp_SimpleDesc;
        INC     DPTR
        MOV     A,#SampleApp_SimpleDesc & 0xff
        MOVX    @DPTR,A
        INC     DPTR
        MOV     A,#(SampleApp_SimpleDesc >> 8) & 0xff
        MOVX    @DPTR,A
//  231   SampleApp_epDesc.latencyReq = noLatencyReqs;
        INC     DPTR
        CLR     A
        MOVX    @DPTR,A
//  232 
//  233   // Register the endpoint description with the AF
//  234   afRegister( &SampleApp_epDesc );
        ; Setup parameters for call to function afRegister
        MOV     R2,#SampleApp_epDesc & 0xff
        MOV     R3,#(SampleApp_epDesc >> 8) & 0xff
        LCALL   ??afRegister?relay
//  235 
//  236   // Register for all key events - This app will handle all key events
//  237   RegisterForKeys( SampleApp_TaskID );
        ; Setup parameters for call to function RegisterForKeys
        MOV     DPTR,#SampleApp_TaskID
        MOVX    A,@DPTR
        MOV     R1,A
        LCALL   ??RegisterForKeys?relay
//  238 
//  239   // By default, all devices start out in Group 1
//  240   SampleApp_Group.ID = 0x0001;
        MOV     DPTR,#SampleApp_Group
        MOV     A,#0x1
        MOVX    @DPTR,A
        INC     DPTR
        CLR     A
        MOVX    @DPTR,A
//  241   osal_memcpy( SampleApp_Group.name, "Group 1", 7 );
        ; Setup parameters for call to function osal_memcpy
        MOV     ?V0 + 0,#`?<Constant "Group 1">` & 0xff
        MOV     ?V0 + 1,#(`?<Constant "Group 1">` >> 8) & 0xff
        MOV     ?V0 + 2,A
        MOV     R0,#?V0 + 0
        LCALL   ?PUSH_XSTACK_I_THREE
        CFI CFA_XSP16 add(XSP16, 14)
        MOV     R4,#0x7
        MOV     R5,#0x0
        MOV     R2,#(SampleApp_Group + 2) & 0xff
        MOV     R3,#((SampleApp_Group + 2) >> 8) & 0xff
        LCALL   ??osal_memcpy?relay
        MOV     A,#0x3
        LCALL   ?DEALLOC_XSTACK8
        CFI CFA_XSP16 add(XSP16, 11)
//  242   aps_AddGroup( SAMPLEAPP_ENDPOINT, &SampleApp_Group );
        ; Setup parameters for call to function aps_AddGroup
        MOV     R2,#SampleApp_Group & 0xff
        MOV     R3,#(SampleApp_Group >> 8) & 0xff
        MOV     R1,#0x14
        LCALL   ??aps_AddGroup?relay
//  243 
//  244 #if defined ( LCD_SUPPORTED )
//  245  // HalLcdWriteString( "SampleApp", HAL_LCD_LINE_1 ); 
//  246 #endif
//  247 }
        MOV     R7,#0x3
        LJMP    ?BANKED_LEAVE_XDATA
        CFI EndBlock cfiBlock0
//  248 
//  249 /*********************************************************************
//  250  * @fn      SampleApp_ProcessEvent
//  251  *
//  252  * @brief   Generic Application Task event processor.  This function
//  253  *          is called to process all events for the task.  Events
//  254  *          include timers, messages and any other user defined events.
//  255  *
//  256  * @param   task_id  - The OSAL assigned task ID.
//  257  * @param   events - events to process.  This is a bit map and can
//  258  *                   contain more than one event.
//  259  *
//  260  * @return  none
//  261  */

        RSEG BANKED_CODE:CODE:NOROOT(0)
//  262 uint16 SampleApp_ProcessEvent( uint8 task_id, uint16 events )
SampleApp_ProcessEvent:
        CFI Block cfiBlock1 Using cfiCommon0
        CFI Function SampleApp_ProcessEvent
        CODE
//  263 { uint8 i;
        FUNCALL SampleApp_ProcessEvent, osal_msg_receive
        LOCFRAME ISTACK, 0, STACK
        LOCFRAME PSTACK, 0, STACK
        LOCFRAME XSTACK, 12, STACK
        LOCFRAME IOVERLAY, 0, STATIC
        LOCFRAME DOVERLAY, 0, STATIC
        ARGFRAME ISTACK, 0, STACK
        ARGFRAME PSTACK, 0, STACK
        ARGFRAME XSTACK, 12, STACK
        ARGFRAME IOVERLAY, 0, STATIC
        ARGFRAME DOVERLAY, 0, STATIC
        FUNCALL SampleApp_ProcessEvent, HalLedSet
        LOCFRAME ISTACK, 0, STACK
        LOCFRAME PSTACK, 0, STACK
        LOCFRAME XSTACK, 12, STACK
        LOCFRAME IOVERLAY, 0, STATIC
        LOCFRAME DOVERLAY, 0, STATIC
        ARGFRAME ISTACK, 0, STACK
        ARGFRAME PSTACK, 0, STACK
        ARGFRAME XSTACK, 12, STACK
        ARGFRAME IOVERLAY, 0, STATIC
        ARGFRAME DOVERLAY, 0, STATIC
        FUNCALL SampleApp_ProcessEvent, HalLedSet
        LOCFRAME ISTACK, 0, STACK
        LOCFRAME PSTACK, 0, STACK
        LOCFRAME XSTACK, 12, STACK
        LOCFRAME IOVERLAY, 0, STATIC
        LOCFRAME DOVERLAY, 0, STATIC
        ARGFRAME ISTACK, 0, STACK
        ARGFRAME PSTACK, 0, STACK
        ARGFRAME XSTACK, 12, STACK
        ARGFRAME IOVERLAY, 0, STATIC
        ARGFRAME DOVERLAY, 0, STATIC
        FUNCALL SampleApp_ProcessEvent, HalLedBlink
        LOCFRAME ISTACK, 0, STACK
        LOCFRAME PSTACK, 0, STACK
        LOCFRAME XSTACK, 12, STACK
        LOCFRAME IOVERLAY, 0, STATIC
        LOCFRAME DOVERLAY, 0, STATIC
        ARGFRAME ISTACK, 0, STACK
        ARGFRAME PSTACK, 0, STACK
        ARGFRAME XSTACK, 12, STACK
        ARGFRAME IOVERLAY, 0, STATIC
        ARGFRAME DOVERLAY, 0, STATIC
        FUNCALL SampleApp_ProcessEvent, osal_msg_deallocate
        LOCFRAME ISTACK, 0, STACK
        LOCFRAME PSTACK, 0, STACK
        LOCFRAME XSTACK, 12, STACK
        LOCFRAME IOVERLAY, 0, STATIC
        LOCFRAME DOVERLAY, 0, STATIC
        ARGFRAME ISTACK, 0, STACK
        ARGFRAME PSTACK, 0, STACK
        ARGFRAME XSTACK, 12, STACK
        ARGFRAME IOVERLAY, 0, STATIC
        ARGFRAME DOVERLAY, 0, STATIC
        FUNCALL SampleApp_ProcessEvent, osal_msg_receive
        LOCFRAME ISTACK, 0, STACK
        LOCFRAME PSTACK, 0, STACK
        LOCFRAME XSTACK, 12, STACK
        LOCFRAME IOVERLAY, 0, STATIC
        LOCFRAME DOVERLAY, 0, STATIC
        ARGFRAME ISTACK, 0, STACK
        ARGFRAME PSTACK, 0, STACK
        ARGFRAME XSTACK, 12, STACK
        ARGFRAME IOVERLAY, 0, STATIC
        ARGFRAME DOVERLAY, 0, STATIC
        FUNCALL SampleApp_ProcessEvent, SampleApp_MessageMSGCB
        LOCFRAME ISTACK, 0, STACK
        LOCFRAME PSTACK, 0, STACK
        LOCFRAME XSTACK, 12, STACK
        LOCFRAME IOVERLAY, 0, STATIC
        LOCFRAME DOVERLAY, 0, STATIC
        ARGFRAME ISTACK, 0, STACK
        ARGFRAME PSTACK, 0, STACK
        ARGFRAME XSTACK, 12, STACK
        ARGFRAME IOVERLAY, 0, STATIC
        ARGFRAME DOVERLAY, 0, STATIC
        FUNCALL SampleApp_ProcessEvent, osal_start_timerEx
        LOCFRAME ISTACK, 0, STACK
        LOCFRAME PSTACK, 0, STACK
        LOCFRAME XSTACK, 12, STACK
        LOCFRAME IOVERLAY, 0, STATIC
        LOCFRAME DOVERLAY, 0, STATIC
        ARGFRAME ISTACK, 0, STACK
        ARGFRAME PSTACK, 0, STACK
        ARGFRAME XSTACK, 12, STACK
        ARGFRAME IOVERLAY, 0, STATIC
        ARGFRAME DOVERLAY, 0, STATIC
        MOV     A,#-0xc
        LCALL   ?BANKED_ENTER_XDATA
        CFI DPH0 load(1, XDATA, add(CFA_XSP16, literal(-1)))
        CFI DPL0 load(1, XDATA, add(CFA_XSP16, literal(-2)))
        CFI ?BRET_EXT load(1, XDATA, add(CFA_XSP16, literal(-3)))
        CFI ?RET_HIGH load(1, XDATA, add(CFA_XSP16, literal(-4)))
        CFI ?RET_LOW load(1, XDATA, add(CFA_XSP16, literal(-5)))
        CFI R7 load(1, XDATA, add(CFA_XSP16, literal(-6)))
        CFI V3 load(1, XDATA, add(CFA_XSP16, literal(-7)))
        CFI V2 load(1, XDATA, add(CFA_XSP16, literal(-8)))
        CFI V1 load(1, XDATA, add(CFA_XSP16, literal(-9)))
        CFI V0 load(1, XDATA, add(CFA_XSP16, literal(-10)))
        CFI VB load(1, XDATA, add(CFA_XSP16, literal(-11)))
        CFI R6 load(1, XDATA, add(CFA_XSP16, literal(-12)))
        CFI CFA_SP SP+0
        CFI CFA_XSP16 add(XSP16, 12)
        ; Saved register size: 12
        ; Auto size: 0
        MOV     A,R2
        MOV     R6,A
        MOV     A,R3
        MOV     R7,A
//  264   afIncomingMSGPacket_t *MSGpkt;
//  265   (void)task_id;  // Intentionally unreferenced parameter
//  266 
//  267   if ( events & SYS_EVENT_MSG )
        ANL     A,#0x80
        JZ      ??SampleApp_ProcessEvent_0
//  268   {
//  269     MSGpkt = (afIncomingMSGPacket_t *)osal_msg_receive( SampleApp_TaskID );
        ; Setup parameters for call to function osal_msg_receive
        SJMP    ??SampleApp_ProcessEvent_1
//  270     while ( MSGpkt )
//  271     {
//  272       switch ( MSGpkt->hdr.event )
//  273       {
//  274         // Received when a key is pressed
//  275         case KEY_CHANGE:
//  276         //  SampleApp_HandleKeys( ((keyChange_t *)MSGpkt)->state, ((keyChange_t *)MSGpkt)->keys );
//  277           break;
//  278 
//  279         // Received when a messages is received (OTA) for this endpoint
//  280         case AF_INCOMING_MSG_CMD:
//  281           SampleApp_MessageMSGCB( MSGpkt );
//  282           break;
//  283 
//  284         // Received whenever the device changes state in the network
//  285         case ZDO_STATE_CHANGE:
//  286           SampleApp_NwkState = (devStates_t)(MSGpkt->hdr.status);
??SampleApp_ProcessEvent_2:
        INC     DPTR
        MOVX    A,@DPTR
        MOV     DPTR,#SampleApp_NwkState
        MOVX    @DPTR,A
//  287           if ((SampleApp_NwkState == DEV_ROUTER)|| (SampleApp_NwkState == DEV_END_DEVICE) )
        XRL     A,#0x7
        JZ      ??SampleApp_ProcessEvent_3
        MOVX    A,@DPTR
        XRL     A,#0x6
        JNZ     ??SampleApp_ProcessEvent_4
//  288           {
//  289               HalLedSet(HAL_LED_1,HAL_LED_MODE_OFF);
??SampleApp_ProcessEvent_3:
        ; Setup parameters for call to function HalLedSet
        MOV     R2,#0x0
        MOV     R1,#0x1
        LCALL   ??HalLedSet?relay
//  290               HalLedSet(HAL_LED_2,HAL_LED_MODE_OFF);
        ; Setup parameters for call to function HalLedSet
        MOV     R2,#0x0
        MOV     R1,#0x2
        LCALL   ??HalLedSet?relay
//  291               HalLedBlink (HAL_LED_1,4, 50, 500);
        ; Setup parameters for call to function HalLedBlink
        MOV     R4,#-0xc
        MOV     R5,#0x1
        MOV     R3,#0x32
        MOV     R2,#0x4
        MOV     R1,#0x1
        LCALL   ??HalLedBlink?relay
//  292                P2SEL &= ~0x03;  //P2_0 , P2_1…Ë÷√Œ™Õ®”√io£ª   
        ANL     0xf5,#0xfc
//  293                P2DIR &= ~0x01;  //P2_0…Ë÷√Œ™ ‰»Îƒ£ Ω£ª
        ANL     0xff,#0xfe
//  294                P2DIR |=  0x02;  //P2_1…Ë÷√Œ™ ‰≥ˆƒ£ Ω£ª
        ORL     0xff,#0x2
//  295             // osal_start_timerEx( SampleApp_TaskID,SAMPLEAPP_SEND_PERIODIC_MSG_EVT,2000 );//÷‹∆⁄≤…ºØ¥´∏–∆˜÷µ  
//  296           }
//  297           else
//  298           {
//  299             // Device is no longer in the network
//  300           }
//  301           break;
//  302 
//  303         default:
//  304           break;
//  305       }
//  306 
//  307       // Release the memory
//  308       osal_msg_deallocate( (uint8 *)MSGpkt );
??SampleApp_ProcessEvent_4:
        ; Setup parameters for call to function osal_msg_deallocate
        MOV     R2,?V0 + 0
        MOV     R3,?V0 + 1
        LCALL   ??osal_msg_deallocate?relay
//  309 
//  310       // Next - if one is available
//  311       MSGpkt = (afIncomingMSGPacket_t *)osal_msg_receive( SampleApp_TaskID );
        ; Setup parameters for call to function osal_msg_receive
??SampleApp_ProcessEvent_1:
        MOV     DPTR,#SampleApp_TaskID
        MOVX    A,@DPTR
        MOV     R1,A
        LCALL   ??osal_msg_receive?relay
        MOV     ?V0 + 0,R2
        MOV     ?V0 + 1,R3
        MOV     A,?V0 + 0
        ORL     A,?V0 + 1
        JZ      ??SampleApp_ProcessEvent_5
        MOV     DPL,?V0 + 0
        MOV     DPH,?V0 + 1
        MOVX    A,@DPTR
        ADD     A,#-0x1a
        JZ      ??SampleApp_ProcessEvent_6
        ADD     A,#0x49
        JZ      ??SampleApp_ProcessEvent_2
        SJMP    ??SampleApp_ProcessEvent_4
??SampleApp_ProcessEvent_6:
        ; Setup parameters for call to function SampleApp_MessageMSGCB
        MOV     R2,?V0 + 0
        MOV     R3,?V0 + 1
        LCALL   ??SampleApp_MessageMSGCB?relay
        SJMP    ??SampleApp_ProcessEvent_4
//  312     }
//  313 
//  314     // return unprocessed events
//  315     return (events ^ SYS_EVENT_MSG);
??SampleApp_ProcessEvent_5:
        MOV     A,R6
        MOV     R2,A
        MOV     A,R7
        XRL     A,#0x80
??SampleApp_ProcessEvent_7:
        MOV     R3,A
        SJMP    ??SampleApp_ProcessEvent_8
//  316   }
//  317 
//  318   // Send a message out - This event is generated by a timer
//  319   //  (setup in SampleApp_Init()).
//  320   if ( events & SAMPLEAPP_SEND_PERIODIC_MSG_EVT )
??SampleApp_ProcessEvent_0:
        MOV     A,R6
        MOV     C,0xE0 /* A   */.0
        JNC     ??SampleApp_ProcessEvent_9
//  321   {
//  322     // Setup to send message again in normal period (+ a little jitter)
//  323     osal_start_timerEx( SampleApp_TaskID, SAMPLEAPP_SEND_PERIODIC_MSG_EVT,
//  324        2000);
        ; Setup parameters for call to function osal_start_timerEx
        MOV     R4,#-0x30
        MOV     R5,#0x7
        MOV     R2,#0x1
        MOV     R3,#0x0
        MOV     DPTR,#SampleApp_TaskID
        MOVX    A,@DPTR
        MOV     R1,A
        LCALL   ??osal_start_timerEx?relay
//  325 
//  326     // return unprocessed events
//  327     return (events ^ SAMPLEAPP_SEND_PERIODIC_MSG_EVT);
        MOV     A,R6
        XRL     A,#0x1
        MOV     R2,A
        MOV     A,R7
        SJMP    ??SampleApp_ProcessEvent_7
//  328   }
//  329 
//  330   // Discard unknown events
//  331   return 0;
??SampleApp_ProcessEvent_9:
        MOV     R2,#0x0
        MOV     R3,#0x0
??SampleApp_ProcessEvent_8:
        MOV     R7,#0x4
        LJMP    ?BANKED_LEAVE_XDATA
        CFI EndBlock cfiBlock1
        REQUIRE P2SEL
        REQUIRE P2DIR
//  332 }
//  333 
//  334 
//  335 /*********************************************************************
//  336  * LOCAL FUNCTIONS
//  337  */
//  338 
//  339 /*********************************************************************
//  340  * @fn      SampleApp_MessageMSGCB
//  341  *
//  342  * @brief   Data message processor callback.  This function processes
//  343  *          any incoming data - probably from other devices.  So, based
//  344  *          on cluster ID, perform the intended action.
//  345  *
//  346  * @param   none
//  347  *
//  348  * @return  none
//  349  */

        RSEG BANKED_CODE:CODE:NOROOT(0)
//  350 void SampleApp_MessageMSGCB( afIncomingMSGPacket_t *pkt )
SampleApp_MessageMSGCB:
        CFI Block cfiBlock2 Using cfiCommon0
        CFI Function SampleApp_MessageMSGCB
        CODE
//  351 {
        FUNCALL SampleApp_MessageMSGCB, osal_memcpy
        LOCFRAME ISTACK, 0, STACK
        LOCFRAME PSTACK, 0, STACK
        LOCFRAME XSTACK, 49, STACK
        LOCFRAME IOVERLAY, 0, STATIC
        LOCFRAME DOVERLAY, 0, STATIC
        ARGFRAME ISTACK, 0, STACK
        ARGFRAME PSTACK, 0, STACK
        ARGFRAME XSTACK, 49, STACK
        ARGFRAME IOVERLAY, 0, STATIC
        ARGFRAME DOVERLAY, 0, STATIC
        FUNCALL SampleApp_MessageMSGCB, get6
        LOCFRAME ISTACK, 0, STACK
        LOCFRAME PSTACK, 0, STACK
        LOCFRAME XSTACK, 46, STACK
        LOCFRAME IOVERLAY, 0, STATIC
        LOCFRAME DOVERLAY, 0, STATIC
        ARGFRAME ISTACK, 0, STACK
        ARGFRAME PSTACK, 0, STACK
        ARGFRAME XSTACK, 46, STACK
        ARGFRAME IOVERLAY, 0, STATIC
        ARGFRAME DOVERLAY, 0, STATIC
        FUNCALL SampleApp_MessageMSGCB, delay_20us
        LOCFRAME ISTACK, 0, STACK
        LOCFRAME PSTACK, 0, STACK
        LOCFRAME XSTACK, 46, STACK
        LOCFRAME IOVERLAY, 0, STATIC
        LOCFRAME DOVERLAY, 0, STATIC
        ARGFRAME ISTACK, 0, STACK
        ARGFRAME PSTACK, 0, STACK
        ARGFRAME XSTACK, 46, STACK
        ARGFRAME IOVERLAY, 0, STATIC
        ARGFRAME DOVERLAY, 0, STATIC
        FUNCALL SampleApp_MessageMSGCB, Onboard_wait
        LOCFRAME ISTACK, 0, STACK
        LOCFRAME PSTACK, 0, STACK
        LOCFRAME XSTACK, 46, STACK
        LOCFRAME IOVERLAY, 0, STATIC
        LOCFRAME DOVERLAY, 0, STATIC
        ARGFRAME ISTACK, 0, STACK
        ARGFRAME PSTACK, 0, STACK
        ARGFRAME XSTACK, 46, STACK
        ARGFRAME IOVERLAY, 0, STATIC
        ARGFRAME DOVERLAY, 0, STATIC
        FUNCALL SampleApp_MessageMSGCB, AF_DataRequest
        LOCFRAME ISTACK, 0, STACK
        LOCFRAME PSTACK, 0, STACK
        LOCFRAME XSTACK, 55, STACK
        LOCFRAME IOVERLAY, 0, STATIC
        LOCFRAME DOVERLAY, 0, STATIC
        ARGFRAME ISTACK, 0, STACK
        ARGFRAME PSTACK, 0, STACK
        ARGFRAME XSTACK, 55, STACK
        ARGFRAME IOVERLAY, 0, STATIC
        ARGFRAME DOVERLAY, 0, STATIC
        FUNCALL SampleApp_MessageMSGCB, HalLedSet
        LOCFRAME ISTACK, 0, STACK
        LOCFRAME PSTACK, 0, STACK
        LOCFRAME XSTACK, 46, STACK
        LOCFRAME IOVERLAY, 0, STATIC
        LOCFRAME DOVERLAY, 0, STATIC
        ARGFRAME ISTACK, 0, STACK
        ARGFRAME PSTACK, 0, STACK
        ARGFRAME XSTACK, 46, STACK
        ARGFRAME IOVERLAY, 0, STATIC
        ARGFRAME DOVERLAY, 0, STATIC
        FUNCALL SampleApp_MessageMSGCB, HalLedSet
        LOCFRAME ISTACK, 0, STACK
        LOCFRAME PSTACK, 0, STACK
        LOCFRAME XSTACK, 46, STACK
        LOCFRAME IOVERLAY, 0, STATIC
        LOCFRAME DOVERLAY, 0, STATIC
        ARGFRAME ISTACK, 0, STACK
        ARGFRAME PSTACK, 0, STACK
        ARGFRAME XSTACK, 46, STACK
        ARGFRAME IOVERLAY, 0, STATIC
        ARGFRAME DOVERLAY, 0, STATIC
        FUNCALL SampleApp_MessageMSGCB, HalLedSet
        LOCFRAME ISTACK, 0, STACK
        LOCFRAME PSTACK, 0, STACK
        LOCFRAME XSTACK, 46, STACK
        LOCFRAME IOVERLAY, 0, STATIC
        LOCFRAME DOVERLAY, 0, STATIC
        ARGFRAME ISTACK, 0, STACK
        ARGFRAME PSTACK, 0, STACK
        ARGFRAME XSTACK, 46, STACK
        ARGFRAME IOVERLAY, 0, STATIC
        ARGFRAME DOVERLAY, 0, STATIC
        FUNCALL SampleApp_MessageMSGCB, HalLedSet
        LOCFRAME ISTACK, 0, STACK
        LOCFRAME PSTACK, 0, STACK
        LOCFRAME XSTACK, 46, STACK
        LOCFRAME IOVERLAY, 0, STATIC
        LOCFRAME DOVERLAY, 0, STATIC
        ARGFRAME ISTACK, 0, STACK
        ARGFRAME PSTACK, 0, STACK
        ARGFRAME XSTACK, 46, STACK
        ARGFRAME IOVERLAY, 0, STATIC
        ARGFRAME DOVERLAY, 0, STATIC
        FUNCALL SampleApp_MessageMSGCB, osal_memcpy
        LOCFRAME ISTACK, 0, STACK
        LOCFRAME PSTACK, 0, STACK
        LOCFRAME XSTACK, 49, STACK
        LOCFRAME IOVERLAY, 0, STATIC
        LOCFRAME DOVERLAY, 0, STATIC
        ARGFRAME ISTACK, 0, STACK
        ARGFRAME PSTACK, 0, STACK
        ARGFRAME XSTACK, 49, STACK
        ARGFRAME IOVERLAY, 0, STATIC
        ARGFRAME DOVERLAY, 0, STATIC
        FUNCALL SampleApp_MessageMSGCB, AF_DataRequest
        LOCFRAME ISTACK, 0, STACK
        LOCFRAME PSTACK, 0, STACK
        LOCFRAME XSTACK, 55, STACK
        LOCFRAME IOVERLAY, 0, STATIC
        LOCFRAME DOVERLAY, 0, STATIC
        ARGFRAME ISTACK, 0, STACK
        ARGFRAME PSTACK, 0, STACK
        ARGFRAME XSTACK, 55, STACK
        ARGFRAME IOVERLAY, 0, STATIC
        ARGFRAME DOVERLAY, 0, STATIC
        MOV     A,#-0x14
        LCALL   ?BANKED_ENTER_XDATA
        CFI DPH0 load(1, XDATA, add(CFA_XSP16, literal(-1)))
        CFI DPL0 load(1, XDATA, add(CFA_XSP16, literal(-2)))
        CFI ?BRET_EXT load(1, XDATA, add(CFA_XSP16, literal(-3)))
        CFI ?RET_HIGH load(1, XDATA, add(CFA_XSP16, literal(-4)))
        CFI ?RET_LOW load(1, XDATA, add(CFA_XSP16, literal(-5)))
        CFI R7 load(1, XDATA, add(CFA_XSP16, literal(-6)))
        CFI V11 load(1, XDATA, add(CFA_XSP16, literal(-7)))
        CFI V10 load(1, XDATA, add(CFA_XSP16, literal(-8)))
        CFI V9 load(1, XDATA, add(CFA_XSP16, literal(-9)))
        CFI V8 load(1, XDATA, add(CFA_XSP16, literal(-10)))
        CFI V7 load(1, XDATA, add(CFA_XSP16, literal(-11)))
        CFI V6 load(1, XDATA, add(CFA_XSP16, literal(-12)))
        CFI V5 load(1, XDATA, add(CFA_XSP16, literal(-13)))
        CFI V4 load(1, XDATA, add(CFA_XSP16, literal(-14)))
        CFI V3 load(1, XDATA, add(CFA_XSP16, literal(-15)))
        CFI V2 load(1, XDATA, add(CFA_XSP16, literal(-16)))
        CFI V1 load(1, XDATA, add(CFA_XSP16, literal(-17)))
        CFI V0 load(1, XDATA, add(CFA_XSP16, literal(-18)))
        CFI VB load(1, XDATA, add(CFA_XSP16, literal(-19)))
        CFI R6 load(1, XDATA, add(CFA_XSP16, literal(-20)))
        CFI CFA_SP SP+0
        CFI CFA_XSP16 add(XSP16, 20)
        ; Saved register size: 20
        ; Auto size: 26
        MOV     A,#-0x1a
        LCALL   ?ALLOC_XSTACK8
        CFI CFA_XSP16 add(XSP16, 46)
//  352   int us_count=0;
        MOV     R6,#0x0
        MOV     R7,#0x0
//  353   unsigned int distance_data=0;
//  354   uint8 coor_to_end[4];//Ω” ’µƒŒﬁœﬂ ˝æ›£®≤…ºØ£©
//  355   uint8 coor_to_con[4];//Ω” ’µƒŒﬁœﬂ ˝æ›(øÿ÷∆)
//  356   uint8 byte_len;//◊÷Ω⁄≥§∂»
//  357   uint8 end_sensor[15];
//  358   uint8 end_con[3];
//  359   uint16 gz_ce1=0;//π‚’’ µ ±÷µ
//  360   float temp;
//  361   switch ( pkt->clusterId )
        MOV     DPL,R2
        MOV     DPH,R3
        INC     DPTR
        INC     DPTR
        INC     DPTR
        INC     DPTR
        MOVX    A,@DPTR
        MOV     ?V0 + 0,A
        INC     DPTR
        MOVX    A,@DPTR
        MOV     ?V0 + 1,A
        MOV     R0,#?V0 + 0
        LCALL   ?US_SWITCH_DENSE
`?<Jumptable for SampleApp_MessageMSGCB>_0`:
        DATA
        DATA16
        DATA
        DATA16
        DW        1
        DATA
        DATA8
        DATA
        DATA8
        DB        1
        DATA
        DATA16
        DATA
        DATA16
        DW        ??SampleApp_MessageMSGCB_0
        DATA
        DATA16
        DATA
        DATA16
        DW        ??SampleApp_MessageMSGCB_1
        DATA
        DATA16
        DATA
        DATA16
        DW        ??SampleApp_MessageMSGCB_2
        CODE
//  362   {    
//  363     case SAMPLEAPP_PERIODIC_CLUSTERID: //±Ì æ÷‹∆⁄∫Ø ˝
//  364           osal_memcpy(coor_to_end,pkt->cmd.Data,pkt->cmd.DataLength);   // ∂‘Œﬁœﬂ ˝æ›Ω¯––¥¶¿Ì
??SampleApp_MessageMSGCB_1:
        ; Setup parameters for call to function osal_memcpy
        LCALL   ?Subroutine1 & 0xFFFF
??CrossCallReturnLabel_0:
        LCALL   ?PUSH_XSTACK_I_THREE
        CFI CFA_XSP16 add(XSP16, 49)
        LCALL   ?Subroutine2 & 0xFFFF
??CrossCallReturnLabel_2:
        MOV     A,#0xa
        LCALL   ?XSTACK_DISP0_8
        MOV     R2,DPL
        MOV     R3,DPH
        LCALL   ??osal_memcpy?relay
        MOV     A,#0x3
        LCALL   ?DEALLOC_XSTACK8
        CFI CFA_XSP16 add(XSP16, 46)
//  365           byte_len=pkt->cmd.DataLength;
//  366           if(coor_to_end[0]==0x02&&coor_to_end[1]==0x03)
        MOV     A,#0x7
        LCALL   ?XSTACK_DISP0_8
        MOVX    A,@DPTR
        XRL     A,#0x2
        JZ      $+5
        LJMP    ??SampleApp_MessageMSGCB_0 & 0xFFFF
        MOV     A,#0x8
        LCALL   ?XSTACK_DISP0_8
        MOVX    A,@DPTR
        XRL     A,#0x3
        JZ      $+5
        LJMP    ??SampleApp_MessageMSGCB_0 & 0xFFFF
//  367           {
//  368               end_sensor[0]=0x02;//µÿ÷∑
        MOV     A,#0xb
        LCALL   ?XSTACK_DISP0_8
        MOV     A,#0x2
        MOVX    @DPTR,A
//  369               end_sensor[1]=0x03;//π¶ƒ‹¥˙¬Î
        MOV     A,#0xc
        LCALL   ?XSTACK_DISP0_8
        MOV     A,#0x3
        MOVX    @DPTR,A
//  370               temp=get6();//ªÒ»°π‚’’÷µ
        ; Setup parameters for call to function get6
        LCALL   ??get6?relay
        MOV     ?V0 + 0,R2
        MOV     ?V0 + 1,R3
        MOV     ?V0 + 2,R4
        MOV     ?V0 + 3,R5
//  371               end_sensor[2]=(char)(temp)%10;
        MOV     ?V0 + 4,R2
        MOV     ?V0 + 5,R3
        MOV     ?V0 + 6,R4
        MOV     ?V0 + 7,R5
        MOV     R0,#?V0 + 4
        LCALL   ?FLT_TO_L
        MOV     A,?V0 + 4
        MOV     B,#0xa
        DIV     AB
        MOV     R3,B
        MOV     A,#0xd
        LCALL   ?XSTACK_DISP0_8
        MOV     A,R3
        MOVX    @DPTR,A
//  372               end_sensor[3]=(char)(temp*10)%10;
        MOV     ?V0 + 8,R2
        MOV     ?V0 + 9,?V0 + 1
        MOV     ?V0 + 10,R4
        MOV     ?V0 + 11,R5
        MOV     DPTR,#__Constant_41200000
        MOV     R0,#?V0 + 4
        LCALL   ?L_MOV_X
        MOV     R0,#?V0 + 8
        MOV     R1,#?V0 + 4
        LCALL   ?FLT_MUL
        MOV     R0,#?V0 + 8
        LCALL   ?FLT_TO_L
        MOV     A,?V0 + 8
        MOV     B,#0xa
        DIV     AB
        MOV     R2,B
        MOV     A,#0xe
        LCALL   ?XSTACK_DISP0_8
        MOV     A,R2
        MOVX    @DPTR,A
//  373               end_sensor[4]=(char)(temp*100)%10;
        MOV     ?V0 + 8,?V0 + 0
        MOV     ?V0 + 9,?V0 + 1
        MOV     ?V0 + 10,R4
        MOV     ?V0 + 11,R5
        MOV     DPTR,#__Constant_42c80000
        MOV     R0,#?V0 + 4
        LCALL   ?L_MOV_X
        MOV     R0,#?V0 + 8
        MOV     R1,#?V0 + 4
        LCALL   ?FLT_MUL
        MOV     R0,#?V0 + 8
        LCALL   ?FLT_TO_L
        MOV     A,?V0 + 8
        MOV     B,#0xa
        DIV     AB
        MOV     R4,B
        MOV     A,#0xf
        LCALL   ?XSTACK_DISP0_8
        MOV     A,R4
        MOVX    @DPTR,A
//  374               end_sensor[5]=(char)(temp*1000)%10;
        MOV     DPTR,#__Constant_447a0000
        MOV     R0,#?V0 + 4
        LCALL   ?L_MOV_X
        MOV     R0,#?V0 + 0
        MOV     R1,#?V0 + 4
        LCALL   ?FLT_MUL
        MOV     R0,#?V0 + 0
        LCALL   ?FLT_TO_L
        MOV     A,?V0 + 0
        MOV     B,#0xa
        DIV     AB
        MOV     A,B
        MOV     ?V0 + 0,A
        MOV     A,#0x10
        LCALL   ?XSTACK_DISP0_8
        MOV     A,?V0 + 0
        MOVX    @DPTR,A
//  375               gz_ce1=end_sensor[2]*1000+ end_sensor[3]*100+ end_sensor[4]*10+ end_sensor[5];//π‚’’÷µ
        MOV     A,R3
        MOV     R0,A
        MOV     B,#-0x18
        MUL     AB
        XCH     A,R0
        MOV     R3,B
        MOV     B,#0x3
        MUL     AB
        ADD     A,R3
        MOV     R1,A
        MOV     A,R2
        MOV     B,#0x64
        MUL     AB
        MOV     R2,A
        MOV     R3,B
        MOV     A,R0
        ADD     A,R2
        MOV     R0,A
        MOV     A,R1
        ADDC    A,R3
        MOV     R1,A
        MOV     A,R4
        MOV     B,#0xa
        MUL     AB
        MOV     R2,A
        MOV     R3,B
        MOV     A,R0
        ADD     A,R2
        MOV     R0,A
        MOV     A,R1
        ADDC    A,R3
        MOV     R1,A
        MOV     A,R0
        ADD     A,?V0 + 0
        MOV     ?V0 + 0,A
        MOV     A,R1
        ADDC    A,#0x0
        MOV     ?V0 + 1,A
//  376                //¥•∑¢“˝Ω≈Trig≤˙…˙“ª∏ˆ20usµƒ∏ﬂµÁ∆Ω
//  377               Trig=1;
        SETB    0xa0.1
//  378               delay_20us();
        ; Setup parameters for call to function delay_20us
        LCALL   ??delay_20us?relay
//  379               Trig=0;         
        CLR     0xa0.1
//  380           
//  381               //µ»¥˝Echoªÿ≤®“˝Ω≈±‰∏ﬂµÁ∆Ω
//  382               while(Echo==0); 
??SampleApp_MessageMSGCB_3:
        MOV     C,0xa0.0
        JNC     ??SampleApp_MessageMSGCB_3
//  383           
//  384               while(Echo==1)//ªÿ≤®“ª÷± «∏ﬂµÁ∆Ω
??SampleApp_MessageMSGCB_4:
        MOV     C,0xa0.0
        JNC     ??SampleApp_MessageMSGCB_5
//  385               {
//  386               //10us—” ±
//  387                   delay_10us();
        ; Setup parameters for call to function Onboard_wait
        MOV     R2,#0xa
        MOV     R3,#0x0
        LCALL   ??Onboard_wait?relay
//  388                   us_count++;
        MOV     A,R6
        ADD     A,#0x1
        INC     R6
        MOV     A,R7
        ADDC    A,#0x0
        MOV     R7,A
        SJMP    ??SampleApp_MessageMSGCB_4
//  389               }
//  390           
//  391               //≤‚ ‘ ±∆¡±Œ
//  392               distance_data=us_count*10;//º∆À„ ±º‰
//  393               distance_data/=58;//º∆À„æ‡¿Î,µ•Œªcm
??SampleApp_MessageMSGCB_5:
        MOV     A,R6
        MOV     B,#0xa
        MUL     AB
        MOV     R6,A
        MOV     R0,B
        MOV     B,#0xa
        MOV     A,R7
        MUL     AB
        ADD     A,R0
        MOV     R7,A
        MOV     A,R6
        MOV     R0,A
        MOV     A,R7
        MOV     R1,A
        MOV     R2,#0x3a
        MOV     R3,#0x0
        LCALL   ?US_DIV_MOD
//  394                   
//  395               if(distance_data>=1000)
        MOV     A,R0
        SUBB    A,#-0x18
        MOV     A,R1
        SUBB    A,#0x3
        JC      ??SampleApp_MessageMSGCB_6
//  396               {
//  397                  end_sensor[6]='0';//≥¨ ±£¨≤ª¥¶¿Ì
??SampleApp_MessageMSGCB_7:
        MOV     A,#0x11
        LCALL   ?XSTACK_DISP0_8
        MOV     A,#0x30
        SJMP    ??SampleApp_MessageMSGCB_8
//  398               }
//  399               else
//  400               {
//  401                  if(distance_data>=10)
??SampleApp_MessageMSGCB_6:
        CLR     C
        MOV     A,R0
        SUBB    A,#0xa
        MOV     A,R1
        SUBB    A,#0x0
        JNC     ??SampleApp_MessageMSGCB_7
//  402                  {
//  403                    end_sensor[6]='0';//’˝≥£
//  404                  }
//  405                  else
//  406                  {
//  407                     end_sensor[6]='1';//“Ï≥££¨”–»ÀøøΩ¸
        MOV     A,#0x11
        LCALL   ?XSTACK_DISP0_8
        MOV     A,#0x31
??SampleApp_MessageMSGCB_8:
        MOVX    @DPTR,A
//  408                  }
//  409               }
//  410              
//  411               end_sensor[7]=0x68;
        MOV     A,#0x12
        LCALL   ?XSTACK_DISP0_8
        MOV     A,#0x68
        MOVX    @DPTR,A
//  412                if ( AF_DataRequest( &SampleApp_Periodic_DstAddr, &SampleApp_epDesc,
//  413                        SAMPLEAPP_PERIODIC_CLUSTERID,
//  414                        8,
//  415                        end_sensor,
//  416                        &SampleApp_TransID,
//  417                        AF_DISCV_ROUTE,
//  418                        AF_DEFAULT_RADIUS ) == afStatus_SUCCESS )
        ; Setup parameters for call to function AF_DataRequest
        MOV     ?V0 + 2,#0x1e
        MOV     R0,#?V0 + 2
        LCALL   ?PUSH_XSTACK_I_ONE
        CFI CFA_XSP16 add(XSP16, 47)
        MOV     ?V0 + 2,#SampleApp_TransID & 0xff
        MOV     ?V0 + 3,#(SampleApp_TransID >> 8) & 0xff
        MOV     R0,#?V0 + 2
        LCALL   ?PUSH_XSTACK_I_TWO
        CFI CFA_XSP16 add(XSP16, 49)
        MOV     A,#0xe
        LCALL   ?XSTACK_DISP0_8
        MOV     ?V0 + 2,DPL
        MOV     ?V0 + 3,DPH
        MOV     R0,#?V0 + 2
        LCALL   ?PUSH_XSTACK_I_TWO
        CFI CFA_XSP16 add(XSP16, 51)
        MOV     ?V0 + 2,#0x8
        MOV     ?V0 + 3,#0x0
        MOV     R0,#?V0 + 2
        LCALL   ?PUSH_XSTACK_I_TWO
        CFI CFA_XSP16 add(XSP16, 53)
        MOV     ?V0 + 2,#0x1
        MOV     R0,#?V0 + 2
        LCALL   ?PUSH_XSTACK_I_TWO
        CFI CFA_XSP16 add(XSP16, 55)
        MOV     R1,#0x20
        MOV     R4,#SampleApp_epDesc & 0xff
        MOV     R5,#(SampleApp_epDesc >> 8) & 0xff
        MOV     R2,#SampleApp_Periodic_DstAddr & 0xff
        MOV     R3,#(SampleApp_Periodic_DstAddr >> 8) & 0xff
        LCALL   ??AF_DataRequest?relay
        MOV     A,#0x9
        LCALL   ?DEALLOC_XSTACK8
        CFI CFA_XSP16 add(XSP16, 46)
        MOV     A,R1
        JZ      $+5
        LJMP    ??SampleApp_MessageMSGCB_0 & 0xFFFF
//  419                 {
//  420                  
//  421                   if(gz_ce1<set_gz)//π‚’’≤ª◊„£¨
        MOV     DPTR,#set_gz
        MOVX    A,@DPTR
        MOV     R0,A
        INC     DPTR
        MOVX    A,@DPTR
        MOV     R1,A
        CLR     C
        MOV     A,?V0 + 0
        SUBB    A,R0
        MOV     A,?V0 + 1
        SUBB    A,R1
        JNC     ??SampleApp_MessageMSGCB_9
//  422                   {
//  423                      HalLedSet(HAL_LED_1,HAL_LED_MODE_ON);
        ; Setup parameters for call to function HalLedSet
        MOV     R2,#0x1
        MOV     R1,#0x1
        LCALL   ??HalLedSet?relay
//  424                      HalLedSet(HAL_LED_2,HAL_LED_MODE_ON);
        ; Setup parameters for call to function HalLedSet
        MOV     R2,#0x1
??SampleApp_MessageMSGCB_10:
        MOV     R1,#0x2
        LCALL   ??HalLedSet?relay
        LJMP    ??SampleApp_MessageMSGCB_0 & 0xFFFF
//  425                   }
//  426                   else
//  427                   {
//  428                      HalLedSet(HAL_LED_1,HAL_LED_MODE_OFF);
??SampleApp_MessageMSGCB_9:
        ; Setup parameters for call to function HalLedSet
        MOV     R2,#0x0
        MOV     R1,#0x1
        LCALL   ??HalLedSet?relay
//  429                      HalLedSet(HAL_LED_2,HAL_LED_MODE_OFF);
        ; Setup parameters for call to function HalLedSet
        MOV     R2,#0x0
        SJMP    ??SampleApp_MessageMSGCB_10
//  430                   }
//  431                 }
//  432                 else
//  433                 {
//  434                   // Error occurred in request to send.
//  435                 }            
//  436           }
//  437          break;
//  438         case  SAMPLEAPP_FLASH_CLUSTERID: //±Ì æ≤Œ ˝œ¬∑¢
//  439            osal_memcpy(coor_to_con,pkt->cmd.Data,pkt->cmd.DataLength);   // ∂‘Œﬁœﬂ ˝æ›Ω¯––¥¶¿Ì
??SampleApp_MessageMSGCB_2:
        ; Setup parameters for call to function osal_memcpy
        LCALL   ?Subroutine1 & 0xFFFF
??CrossCallReturnLabel_1:
        LCALL   ?PUSH_XSTACK_I_THREE
        CFI CFA_XSP16 add(XSP16, 49)
        LCALL   ?Subroutine2 & 0xFFFF
??CrossCallReturnLabel_3:
        MOV     A,#0x6
        LCALL   ?XSTACK_DISP0_8
        MOV     R2,DPL
        MOV     R3,DPH
        LCALL   ??osal_memcpy?relay
        MOV     A,#0x3
        LCALL   ?DEALLOC_XSTACK8
        CFI CFA_XSP16 add(XSP16, 46)
//  440             if(coor_to_con[0]==0x02)
        MOV     A,#0x3
        LCALL   ?XSTACK_DISP0_8
        MOVX    A,@DPTR
        XRL     A,#0x2
        JNZ     ??SampleApp_MessageMSGCB_0
//  441            {
//  442              if(coor_to_con[1]==0x04)
        MOV     A,#0x4
        LCALL   ?XSTACK_DISP0_8
        MOVX    A,@DPTR
        XRL     A,#0x4
        JNZ     ??SampleApp_MessageMSGCB_0
//  443              {
//  444                set_gz=coor_to_con[2]*256+coor_to_con[3];
        MOV     A,#0x5
        LCALL   ?XSTACK_DISP0_8
        MOVX    A,@DPTR
        MOV     R1,A
        MOV     A,#0x6
        LCALL   ?XSTACK_DISP0_8
        MOVX    A,@DPTR
        MOV     DPTR,#set_gz
        MOVX    @DPTR,A
        INC     DPTR
        MOV     A,R1
        MOVX    @DPTR,A
//  445                end_con[0]=0x02;
        MOV     DPL,?XSP + 0
        MOV     DPH,?XSP + 1
        MOV     A,#0x2
        MOVX    @DPTR,A
//  446                end_con[1]=0x04;
        DEC     A
        LCALL   ?XSTACK_DISP0_8
        MOV     A,#0x4
        MOVX    @DPTR,A
//  447                end_con[2]=0x68;
        MOV     A,#0x2
        LCALL   ?XSTACK_DISP0_8
        MOV     A,#0x68
        MOVX    @DPTR,A
//  448                AF_DataRequest( &SampleApp_Periodic_DstAddr, &SampleApp_epDesc,
//  449                        SAMPLEAPP_FLASH_CLUSTERID,3,end_con,
//  450                        &SampleApp_TransID,
//  451                        AF_DISCV_ROUTE,
//  452                        AF_DEFAULT_RADIUS);
        ; Setup parameters for call to function AF_DataRequest
        MOV     ?V0 + 0,#0x1e
        MOV     R0,#?V0 + 0
        LCALL   ?PUSH_XSTACK_I_ONE
        CFI CFA_XSP16 add(XSP16, 47)
        MOV     ?V0 + 0,#SampleApp_TransID & 0xff
        MOV     ?V0 + 1,#(SampleApp_TransID >> 8) & 0xff
        MOV     R0,#?V0 + 0
        LCALL   ?PUSH_XSTACK_I_TWO
        CFI CFA_XSP16 add(XSP16, 49)
        MOV     A,#0x3
        LCALL   ?XSTACK_DISP0_8
        MOV     ?V0 + 0,DPL
        MOV     ?V0 + 1,DPH
        MOV     R0,#?V0 + 0
        LCALL   ?PUSH_XSTACK_I_TWO
        CFI CFA_XSP16 add(XSP16, 51)
        MOV     ?V0 + 0,#0x3
        MOV     ?V0 + 1,R6
        MOV     R0,#?V0 + 0
        LCALL   ?PUSH_XSTACK_I_TWO
        CFI CFA_XSP16 add(XSP16, 53)
        MOV     ?V0 + 0,#0x2
        MOV     R0,#?V0 + 0
        LCALL   ?PUSH_XSTACK_I_TWO
        CFI CFA_XSP16 add(XSP16, 55)
        MOV     R1,#0x20
        MOV     R4,#SampleApp_epDesc & 0xff
        MOV     R5,#(SampleApp_epDesc >> 8) & 0xff
        MOV     R2,#SampleApp_Periodic_DstAddr & 0xff
        MOV     R3,#(SampleApp_Periodic_DstAddr >> 8) & 0xff
        LCALL   ??AF_DataRequest?relay
        MOV     A,#0x9
        LCALL   ?DEALLOC_XSTACK8
        CFI CFA_XSP16 add(XSP16, 46)
//  453              }
//  454             
//  455              
//  456            }
//  457           
//  458     
//  459       break;
//  460 
//  461   }
//  462 }
??SampleApp_MessageMSGCB_0:
        MOV     A,#0x1a
        LCALL   ?DEALLOC_XSTACK8
        CFI CFA_XSP16 add(XSP16, 20)
        MOV     R7,#0xc
        LJMP    ?BANKED_LEAVE_XDATA
        CFI EndBlock cfiBlock2
        REQUIRE _A_P2

        RSEG BANKED_CODE:CODE:NOROOT(0)
?Subroutine2:
        CFI Block cfiCond3 Using cfiCommon0
        CFI NoFunction
        CFI Conditional ??CrossCallReturnLabel_2
        CFI R6 load(1, XDATA, add(CFA_XSP16, literal(-20)))
        CFI VB load(1, XDATA, add(CFA_XSP16, literal(-19)))
        CFI V0 load(1, XDATA, add(CFA_XSP16, literal(-18)))
        CFI V1 load(1, XDATA, add(CFA_XSP16, literal(-17)))
        CFI V2 load(1, XDATA, add(CFA_XSP16, literal(-16)))
        CFI V3 load(1, XDATA, add(CFA_XSP16, literal(-15)))
        CFI V4 load(1, XDATA, add(CFA_XSP16, literal(-14)))
        CFI V5 load(1, XDATA, add(CFA_XSP16, literal(-13)))
        CFI V6 load(1, XDATA, add(CFA_XSP16, literal(-12)))
        CFI V7 load(1, XDATA, add(CFA_XSP16, literal(-11)))
        CFI V8 load(1, XDATA, add(CFA_XSP16, literal(-10)))
        CFI V9 load(1, XDATA, add(CFA_XSP16, literal(-9)))
        CFI V10 load(1, XDATA, add(CFA_XSP16, literal(-8)))
        CFI V11 load(1, XDATA, add(CFA_XSP16, literal(-7)))
        CFI R7 load(1, XDATA, add(CFA_XSP16, literal(-6)))
        CFI ?RET_LOW load(1, XDATA, add(CFA_XSP16, literal(-5)))
        CFI ?RET_HIGH load(1, XDATA, add(CFA_XSP16, literal(-4)))
        CFI ?BRET_EXT load(1, XDATA, add(CFA_XSP16, literal(-3)))
        CFI DPL0 load(1, XDATA, add(CFA_XSP16, literal(-2)))
        CFI DPH0 load(1, XDATA, add(CFA_XSP16, literal(-1)))
        CFI CFA_SP SP+0
        CFI CFA_XSP16 add(XSP16, 49)
        CFI Block cfiCond4 Using cfiCommon0
        CFI (cfiCond4) NoFunction
        CFI (cfiCond4) Conditional ??CrossCallReturnLabel_3
        CFI (cfiCond4) R6 load(1, XDATA, add(CFA_XSP16, literal(-20)))
        CFI (cfiCond4) VB load(1, XDATA, add(CFA_XSP16, literal(-19)))
        CFI (cfiCond4) V0 load(1, XDATA, add(CFA_XSP16, literal(-18)))
        CFI (cfiCond4) V1 load(1, XDATA, add(CFA_XSP16, literal(-17)))
        CFI (cfiCond4) V2 load(1, XDATA, add(CFA_XSP16, literal(-16)))
        CFI (cfiCond4) V3 load(1, XDATA, add(CFA_XSP16, literal(-15)))
        CFI (cfiCond4) V4 load(1, XDATA, add(CFA_XSP16, literal(-14)))
        CFI (cfiCond4) V5 load(1, XDATA, add(CFA_XSP16, literal(-13)))
        CFI (cfiCond4) V6 load(1, XDATA, add(CFA_XSP16, literal(-12)))
        CFI (cfiCond4) V7 load(1, XDATA, add(CFA_XSP16, literal(-11)))
        CFI (cfiCond4) V8 load(1, XDATA, add(CFA_XSP16, literal(-10)))
        CFI (cfiCond4) V9 load(1, XDATA, add(CFA_XSP16, literal(-9)))
        CFI (cfiCond4) V10 load(1, XDATA, add(CFA_XSP16, literal(-8)))
        CFI (cfiCond4) V11 load(1, XDATA, add(CFA_XSP16, literal(-7)))
        CFI (cfiCond4) R7 load(1, XDATA, add(CFA_XSP16, literal(-6)))
        CFI (cfiCond4) ?RET_LOW load(1, XDATA, add(CFA_XSP16, literal(-5)))
        CFI (cfiCond4) ?RET_HIGH load(1, XDATA, add(CFA_XSP16, literal(-4)))
        CFI (cfiCond4) ?BRET_EXT load(1, XDATA, add(CFA_XSP16, literal(-3)))
        CFI (cfiCond4) DPL0 load(1, XDATA, add(CFA_XSP16, literal(-2)))
        CFI (cfiCond4) DPH0 load(1, XDATA, add(CFA_XSP16, literal(-1)))
        CFI (cfiCond4) CFA_SP SP+0
        CFI (cfiCond4) CFA_XSP16 add(XSP16, 49)
        CFI Block cfiPicker5 Using cfiCommon1
        CFI (cfiPicker5) NoFunction
        CFI (cfiPicker5) Picker
        MOV     A,R2
        ADD     A,#0x1f
        MOV     DPL,A
        MOV     A,R3
        ADDC    A,#0x0
        MOV     DPH,A
        MOVX    A,@DPTR
        MOV     R4,A
        INC     DPTR
        MOVX    A,@DPTR
        MOV     R5,A
        RET
        CFI EndBlock cfiCond3
        CFI EndBlock cfiCond4
        CFI EndBlock cfiPicker5

        RSEG BANKED_CODE:CODE:NOROOT(0)
?Subroutine1:
        CFI Block cfiCond6 Using cfiCommon0
        CFI NoFunction
        CFI Conditional ??CrossCallReturnLabel_0
        CFI R6 load(1, XDATA, add(CFA_XSP16, literal(-20)))
        CFI VB load(1, XDATA, add(CFA_XSP16, literal(-19)))
        CFI V0 load(1, XDATA, add(CFA_XSP16, literal(-18)))
        CFI V1 load(1, XDATA, add(CFA_XSP16, literal(-17)))
        CFI V2 load(1, XDATA, add(CFA_XSP16, literal(-16)))
        CFI V3 load(1, XDATA, add(CFA_XSP16, literal(-15)))
        CFI V4 load(1, XDATA, add(CFA_XSP16, literal(-14)))
        CFI V5 load(1, XDATA, add(CFA_XSP16, literal(-13)))
        CFI V6 load(1, XDATA, add(CFA_XSP16, literal(-12)))
        CFI V7 load(1, XDATA, add(CFA_XSP16, literal(-11)))
        CFI V8 load(1, XDATA, add(CFA_XSP16, literal(-10)))
        CFI V9 load(1, XDATA, add(CFA_XSP16, literal(-9)))
        CFI V10 load(1, XDATA, add(CFA_XSP16, literal(-8)))
        CFI V11 load(1, XDATA, add(CFA_XSP16, literal(-7)))
        CFI R7 load(1, XDATA, add(CFA_XSP16, literal(-6)))
        CFI ?RET_LOW load(1, XDATA, add(CFA_XSP16, literal(-5)))
        CFI ?RET_HIGH load(1, XDATA, add(CFA_XSP16, literal(-4)))
        CFI ?BRET_EXT load(1, XDATA, add(CFA_XSP16, literal(-3)))
        CFI DPL0 load(1, XDATA, add(CFA_XSP16, literal(-2)))
        CFI DPH0 load(1, XDATA, add(CFA_XSP16, literal(-1)))
        CFI CFA_SP SP+0
        CFI CFA_XSP16 add(XSP16, 46)
        CFI Block cfiCond7 Using cfiCommon0
        CFI (cfiCond7) NoFunction
        CFI (cfiCond7) Conditional ??CrossCallReturnLabel_1
        CFI (cfiCond7) R6 load(1, XDATA, add(CFA_XSP16, literal(-20)))
        CFI (cfiCond7) VB load(1, XDATA, add(CFA_XSP16, literal(-19)))
        CFI (cfiCond7) V0 load(1, XDATA, add(CFA_XSP16, literal(-18)))
        CFI (cfiCond7) V1 load(1, XDATA, add(CFA_XSP16, literal(-17)))
        CFI (cfiCond7) V2 load(1, XDATA, add(CFA_XSP16, literal(-16)))
        CFI (cfiCond7) V3 load(1, XDATA, add(CFA_XSP16, literal(-15)))
        CFI (cfiCond7) V4 load(1, XDATA, add(CFA_XSP16, literal(-14)))
        CFI (cfiCond7) V5 load(1, XDATA, add(CFA_XSP16, literal(-13)))
        CFI (cfiCond7) V6 load(1, XDATA, add(CFA_XSP16, literal(-12)))
        CFI (cfiCond7) V7 load(1, XDATA, add(CFA_XSP16, literal(-11)))
        CFI (cfiCond7) V8 load(1, XDATA, add(CFA_XSP16, literal(-10)))
        CFI (cfiCond7) V9 load(1, XDATA, add(CFA_XSP16, literal(-9)))
        CFI (cfiCond7) V10 load(1, XDATA, add(CFA_XSP16, literal(-8)))
        CFI (cfiCond7) V11 load(1, XDATA, add(CFA_XSP16, literal(-7)))
        CFI (cfiCond7) R7 load(1, XDATA, add(CFA_XSP16, literal(-6)))
        CFI (cfiCond7) ?RET_LOW load(1, XDATA, add(CFA_XSP16, literal(-5)))
        CFI (cfiCond7) ?RET_HIGH load(1, XDATA, add(CFA_XSP16, literal(-4)))
        CFI (cfiCond7) ?BRET_EXT load(1, XDATA, add(CFA_XSP16, literal(-3)))
        CFI (cfiCond7) DPL0 load(1, XDATA, add(CFA_XSP16, literal(-2)))
        CFI (cfiCond7) DPH0 load(1, XDATA, add(CFA_XSP16, literal(-1)))
        CFI (cfiCond7) CFA_SP SP+0
        CFI (cfiCond7) CFA_XSP16 add(XSP16, 46)
        CFI Block cfiPicker8 Using cfiCommon1
        CFI (cfiPicker8) NoFunction
        CFI (cfiPicker8) Picker
        MOV     A,R2
        ADD     A,#0x21
        MOV     DPL,A
        MOV     A,R3
        ADDC    A,#0x0
        MOV     DPH,A
        MOVX    A,@DPTR
        MOV     ?V0 + 0,A
        INC     DPTR
        MOVX    A,@DPTR
        MOV     ?V0 + 1,A
        MOV     ?V0 + 2,R6
        MOV     R0,#?V0 + 0
        RET
        CFI EndBlock cfiCond6
        CFI EndBlock cfiCond7
        CFI EndBlock cfiPicker8
//  463 
//  464 /*********************************************************************
//  465  * @fn      SampleApp_SendPeriodicMessage
//  466  *
//  467  * @brief   Send the periodic message.
//  468  *
//  469  * @param   none
//  470  *
//  471  * @return  none
//  472  */

        RSEG BANKED_CODE:CODE:NOROOT(0)
//  473 void SampleApp_SendPeriodicMessage( void )
SampleApp_SendPeriodicMessage:
        CFI Block cfiBlock9 Using cfiCommon0
        CFI Function SampleApp_SendPeriodicMessage
        CODE
//  474 {
        ; Saved register size: 0
        ; Auto size: 0
//  475   
//  476   
//  477   
//  478 }
        LJMP    ?BRET
        CFI EndBlock cfiBlock9
//  479 
//  480 /*********************************************************************
//  481  * @fn      SampleApp_SendFlashMessage
//  482  *
//  483  * @brief   Send the flash message to group 1.
//  484  *
//  485  * @param   flashTime - in milliseconds
//  486  *
//  487  * @return  none
//  488  */

        RSEG BANKED_CODE:CODE:NOROOT(0)
//  489 void SampleApp_SendFlashMessage( uint16 flashTime )
SampleApp_SendFlashMessage:
        CFI Block cfiBlock10 Using cfiCommon0
        CFI Function SampleApp_SendFlashMessage
        CODE
//  490 {
        ; Saved register size: 0
        ; Auto size: 0
//  491  
//  492 }
        LJMP    ?BRET
        CFI EndBlock cfiBlock10
//  493 
//  494 //—” ±∫Ø ˝

        RSEG BANKED_CODE:CODE:NOROOT(0)
//  495 void delay_us(void) //1 us—” ±
delay_us:
        CFI Block cfiBlock11 Using cfiCommon0
        CFI Function delay_us
        CODE
//  496 {
        FUNCALL delay_us, Onboard_wait
        LOCFRAME ISTACK, 2, STACK
        LOCFRAME PSTACK, 0, STACK
        LOCFRAME XSTACK, 0, STACK
        LOCFRAME IOVERLAY, 0, STATIC
        LOCFRAME DOVERLAY, 0, STATIC
        ARGFRAME ISTACK, 2, STACK
        ARGFRAME PSTACK, 0, STACK
        ARGFRAME XSTACK, 0, STACK
        ARGFRAME IOVERLAY, 0, STATIC
        ARGFRAME DOVERLAY, 0, STATIC
        PUSH    DPL
        CFI DPL0 Frame(CFA_SP, 4)
        CFI CFA_SP SP+-4
        PUSH    DPH
        CFI DPH0 Frame(CFA_SP, 5)
        CFI CFA_SP SP+-5
        ; Saved register size: 2
        ; Auto size: 0
//  497     MicroWait(1);   
        ; Setup parameters for call to function Onboard_wait
        MOV     R2,#0x1
        SJMP    ??Subroutine3_0
        CFI EndBlock cfiBlock11
//  498 }

        RSEG BANKED_CODE:CODE:NOROOT(0)
//  499 void delay_10us(void) //10 us—” ±
delay_10us:
        CFI Block cfiBlock12 Using cfiCommon0
        CFI Function delay_10us
        CODE
//  500 {
        FUNCALL delay_10us, Onboard_wait
        LOCFRAME ISTACK, 2, STACK
        LOCFRAME PSTACK, 0, STACK
        LOCFRAME XSTACK, 0, STACK
        LOCFRAME IOVERLAY, 0, STATIC
        LOCFRAME DOVERLAY, 0, STATIC
        ARGFRAME ISTACK, 2, STACK
        ARGFRAME PSTACK, 0, STACK
        ARGFRAME XSTACK, 0, STACK
        ARGFRAME IOVERLAY, 0, STATIC
        ARGFRAME DOVERLAY, 0, STATIC
        PUSH    DPL
        CFI DPL0 Frame(CFA_SP, 4)
        CFI CFA_SP SP+-4
        PUSH    DPH
        CFI EndBlock cfiBlock12
        ; Saved register size: 2
        ; Auto size: 0
//  501    MicroWait(10);
        ; Setup parameters for call to function Onboard_wait
        REQUIRE ?Subroutine0
        ; // Fall through to label ?Subroutine0

        RSEG BANKED_CODE:CODE:NOROOT(0)
?Subroutine0:
        CFI Block cfiBlock13 Using cfiCommon0
        CFI NoFunction
        CFI CFA_SP SP+-5
        CFI DPL0 Frame(CFA_SP, 4)
        CFI DPH0 Frame(CFA_SP, 5)
        MOV     R2,#0xa
        CFI EndBlock cfiBlock13
        REQUIRE ??Subroutine3_0
        ; // Fall through to label ??Subroutine3_0

        RSEG BANKED_CODE:CODE:NOROOT(0)
??Subroutine3_0:
        CFI Block cfiBlock14 Using cfiCommon0
        CFI NoFunction
        CFI CFA_SP SP+-5
        CFI DPL0 Frame(CFA_SP, 4)
        CFI DPH0 Frame(CFA_SP, 5)
        MOV     R3,#0x0
        LCALL   ??Onboard_wait?relay
//  502 }
        POP     DPH
        CFI CFA_SP SP+-4
        CFI DPH0 SameValue
        POP     DPL
        CFI CFA_SP SP+-3
        CFI DPL0 SameValue
        LJMP    ?BRET
        CFI EndBlock cfiBlock14

        RSEG BANKED_CODE:CODE:NOROOT(0)
//  503 void delay_20us(void) //20 us—” ±
delay_20us:
        CFI Block cfiBlock15 Using cfiCommon0
        CFI Function delay_20us
        CODE
//  504 {
        FUNCALL delay_20us, Onboard_wait
        LOCFRAME ISTACK, 2, STACK
        LOCFRAME PSTACK, 0, STACK
        LOCFRAME XSTACK, 0, STACK
        LOCFRAME IOVERLAY, 0, STATIC
        LOCFRAME DOVERLAY, 0, STATIC
        ARGFRAME ISTACK, 2, STACK
        ARGFRAME PSTACK, 0, STACK
        ARGFRAME XSTACK, 0, STACK
        ARGFRAME IOVERLAY, 0, STATIC
        ARGFRAME DOVERLAY, 0, STATIC
        FUNCALL delay_20us, Onboard_wait
        LOCFRAME ISTACK, 2, STACK
        LOCFRAME PSTACK, 0, STACK
        LOCFRAME XSTACK, 0, STACK
        LOCFRAME IOVERLAY, 0, STATIC
        LOCFRAME DOVERLAY, 0, STATIC
        ARGFRAME ISTACK, 2, STACK
        ARGFRAME PSTACK, 0, STACK
        ARGFRAME XSTACK, 0, STACK
        ARGFRAME IOVERLAY, 0, STATIC
        ARGFRAME DOVERLAY, 0, STATIC
        PUSH    DPL
        CFI DPL0 Frame(CFA_SP, 4)
        CFI CFA_SP SP+-4
        PUSH    DPH
        CFI DPH0 Frame(CFA_SP, 5)
        CFI CFA_SP SP+-5
        ; Saved register size: 2
        ; Auto size: 0
//  505    MicroWait(10);
        ; Setup parameters for call to function Onboard_wait
        MOV     R2,#0xa
        MOV     R3,#0x0
        LCALL   ??Onboard_wait?relay
//  506    MicroWait(10);
        ; Setup parameters for call to function Onboard_wait
        SJMP    ?Subroutine0
        CFI EndBlock cfiBlock15
//  507 }

        RSEG XDATA_ID:CODE:NOROOT(0)
`?<Initializer for set_gz>`:
        DATA16
        DW 2000

        RSEG BANK_RELAYS:CODE:REORDER:NOROOT(0)
??SampleApp_Init?relay:
        LCALL   ?BDISPATCH
        DATA
        DC24    SampleApp_Init

        RSEG BANK_RELAYS:CODE:REORDER:NOROOT(0)
??SampleApp_ProcessEvent?relay:
        LCALL   ?BDISPATCH
        DATA
        DC24    SampleApp_ProcessEvent

        RSEG BANK_RELAYS:CODE:REORDER:NOROOT(0)
??SampleApp_MessageMSGCB?relay:
        LCALL   ?BDISPATCH
        DATA
        DC24    SampleApp_MessageMSGCB

        RSEG BANK_RELAYS:CODE:REORDER:NOROOT(0)
??SampleApp_SendPeriodicMessage?relay:
        LCALL   ?BDISPATCH
        DATA
        DC24    SampleApp_SendPeriodicMessage

        RSEG BANK_RELAYS:CODE:REORDER:NOROOT(0)
??SampleApp_SendFlashMessage?relay:
        LCALL   ?BDISPATCH
        DATA
        DC24    SampleApp_SendFlashMessage

        RSEG BANK_RELAYS:CODE:REORDER:NOROOT(0)
??delay_us?relay:
        LCALL   ?BDISPATCH
        DATA
        DC24    delay_us

        RSEG BANK_RELAYS:CODE:REORDER:NOROOT(0)
??delay_10us?relay:
        LCALL   ?BDISPATCH
        DATA
        DC24    delay_10us

        RSEG BANK_RELAYS:CODE:REORDER:NOROOT(0)
??delay_20us?relay:
        LCALL   ?BDISPATCH
        DATA
        DC24    delay_20us

        RSEG XDATA_ROM_C:CONST:REORDER:NOROOT(0)
        DATA8
`?<Constant "Group 1">`:
        DB "Group 1"

        RSEG XDATA_ROM_C:CONST:REORDER:NOROOT(0)
        DATA32
__Constant_41200000:
        DD 41200000H

        RSEG XDATA_ROM_C:CONST:REORDER:NOROOT(0)
        DATA32
__Constant_42c80000:
        DD 42C80000H

        RSEG XDATA_ROM_C:CONST:REORDER:NOROOT(0)
        DATA32
__Constant_447a0000:
        DD 447A0000H

        END
//  508 
// 
// 1 119 bytes in segment BANKED_CODE
//    48 bytes in segment BANK_RELAYS
//     3 bytes in segment SFR_AN
//     2 bytes in segment XDATA_I
//     2 bytes in segment XDATA_ID
//    40 bytes in segment XDATA_ROM_C
//    74 bytes in segment XDATA_Z
// 
// 1 169 bytes of CODE  memory
//    28 bytes of CONST memory (+ 12 bytes shared)
//     0 bytes of DATA  memory (+  3 bytes shared)
//    76 bytes of XDATA memory
//
//Errors: none
//Warnings: 2
